ARM GAS  C:\Users\PC\AppData\Local\Temp\ccXlt19g.s 			page 1


   1              		.syntax unified
   2              		.cpu cortex-m4
   3              		.eabi_attribute 27, 1
   4              		.fpu fpv4-sp-d16
   5              		.eabi_attribute 20, 1
   6              		.eabi_attribute 21, 1
   7              		.eabi_attribute 23, 3
   8              		.eabi_attribute 24, 1
   9              		.eabi_attribute 25, 1
  10              		.eabi_attribute 26, 1
  11              		.eabi_attribute 30, 1
  12              		.eabi_attribute 34, 1
  13              		.eabi_attribute 18, 4
  14              		.thumb
  15              		.syntax unified
  16              		.file	"cy_eink_psoc_interface.c"
  17              		.text
  18              	.Ltext0:
  19              		.cfi_sections	.debug_frame
  20              		.section	.text.Cy_EINK_TimerInit,"ax",%progbits
  21              		.align	2
  22              		.global	Cy_EINK_TimerInit
  23              		.thumb
  24              		.thumb_func
  25              		.type	Cy_EINK_TimerInit, %function
  26              	Cy_EINK_TimerInit:
  27              	.LFB548:
  28              		.file 1 "eInk Library\\cy_eink_psoc_interface.c"
   1:eInk Library/cy_eink_psoc_interface.c **** /******************************************************************************
   2:eInk Library/cy_eink_psoc_interface.c **** * File Name: cy_eink_psoc_encapsulation.c
   3:eInk Library/cy_eink_psoc_interface.c **** *
   4:eInk Library/cy_eink_psoc_interface.c **** * Version: 1.10
   5:eInk Library/cy_eink_psoc_interface.c **** *
   6:eInk Library/cy_eink_psoc_interface.c **** * Description: This file contains functions that encapsulate PSoC Component APIs
   7:eInk Library/cy_eink_psoc_interface.c **** *              or Peripheral Driver Library APIs.
   8:eInk Library/cy_eink_psoc_interface.c **** *
   9:eInk Library/cy_eink_psoc_interface.c **** * Hardware Dependency: CY8CKIT-028-EPD E-INK Display Shield
  10:eInk Library/cy_eink_psoc_interface.c **** *
  11:eInk Library/cy_eink_psoc_interface.c **** *******************************************************************************
  12:eInk Library/cy_eink_psoc_interface.c **** * Copyright (2017), Cypress Semiconductor Corporation. All rights reserved.
  13:eInk Library/cy_eink_psoc_interface.c **** *******************************************************************************
  14:eInk Library/cy_eink_psoc_interface.c **** * This software, including source code, documentation and related materials
  15:eInk Library/cy_eink_psoc_interface.c **** * (“Software”), is owned by Cypress Semiconductor Corporation or one of its
  16:eInk Library/cy_eink_psoc_interface.c **** * subsidiaries (“Cypress”) and is protected by and subject to worldwide patent
  17:eInk Library/cy_eink_psoc_interface.c **** * protection (United States and foreign), United States copyright laws and
  18:eInk Library/cy_eink_psoc_interface.c **** * international treaty provisions. Therefore, you may use this Software only
  19:eInk Library/cy_eink_psoc_interface.c **** * as provided in the license agreement accompanying the software package from
  20:eInk Library/cy_eink_psoc_interface.c **** * which you obtained this Software (“EULA”).
  21:eInk Library/cy_eink_psoc_interface.c **** *
  22:eInk Library/cy_eink_psoc_interface.c **** * If no EULA applies, Cypress hereby grants you a personal, nonexclusive,
  23:eInk Library/cy_eink_psoc_interface.c **** * non-transferable license to copy, modify, and compile the Software source
  24:eInk Library/cy_eink_psoc_interface.c **** * code solely for use in connection with Cypress’s integrated circuit products.
  25:eInk Library/cy_eink_psoc_interface.c **** * Any reproduction, modification, translation, compilation, or representation
  26:eInk Library/cy_eink_psoc_interface.c **** * of this Software except as specified above is prohibited without the express
  27:eInk Library/cy_eink_psoc_interface.c **** * written permission of Cypress.
  28:eInk Library/cy_eink_psoc_interface.c **** *
  29:eInk Library/cy_eink_psoc_interface.c **** * Disclaimer: THIS SOFTWARE IS PROVIDED AS-IS, WITH NO WARRANTY OF ANY KIND, 
ARM GAS  C:\Users\PC\AppData\Local\Temp\ccXlt19g.s 			page 2


  30:eInk Library/cy_eink_psoc_interface.c **** * EXPRESS OR IMPLIED, INCLUDING, BUT NOT LIMITED TO, NONINFRINGEMENT, IMPLIED 
  31:eInk Library/cy_eink_psoc_interface.c **** * WARRANTIES OF MERCHANTABILITY AND FITNESS FOR A PARTICULAR PURPOSE. Cypress 
  32:eInk Library/cy_eink_psoc_interface.c **** * reserves the right to make changes to the Software without notice. Cypress 
  33:eInk Library/cy_eink_psoc_interface.c **** * does not assume any liability arising out of the application or use of the 
  34:eInk Library/cy_eink_psoc_interface.c **** * Software or any product or circuit described in the Software. Cypress does 
  35:eInk Library/cy_eink_psoc_interface.c **** * not authorize its products for use in any products where a malfunction or 
  36:eInk Library/cy_eink_psoc_interface.c **** * failure of the Cypress product may reasonably be expected to result in 
  37:eInk Library/cy_eink_psoc_interface.c **** * significant property damage, injury or death (“High Risk Product”). By 
  38:eInk Library/cy_eink_psoc_interface.c **** * including Cypress’s product in a High Risk Product, the manufacturer of such 
  39:eInk Library/cy_eink_psoc_interface.c **** * system or application assumes all risk of such use and in doing so agrees to 
  40:eInk Library/cy_eink_psoc_interface.c **** * indemnify Cypress against all liability.
  41:eInk Library/cy_eink_psoc_interface.c **** *******************************************************************************/
  42:eInk Library/cy_eink_psoc_interface.c **** /******************************************************************************
  43:eInk Library/cy_eink_psoc_interface.c **** * This file contains functions that encapsulate PSoC Component APIs or Peripheral
  44:eInk Library/cy_eink_psoc_interface.c **** * Driver Library APIs. Functions defined in this file are used by the 
  45:eInk Library/cy_eink_psoc_interface.c **** * cy_eink_hardware_driver.c.
  46:eInk Library/cy_eink_psoc_interface.c **** *
  47:eInk Library/cy_eink_psoc_interface.c **** * For the details of the E-INK display and library functions, see the code  
  48:eInk Library/cy_eink_psoc_interface.c **** * example document of CE218133 - PSoC 6 MCU E-INK Display with CapSense
  49:eInk Library/cy_eink_psoc_interface.c **** *
  50:eInk Library/cy_eink_psoc_interface.c **** * For the details of E-INK display control and communication protocols, see the
  51:eInk Library/cy_eink_psoc_interface.c **** * driver document available at the following location:
  52:eInk Library/cy_eink_psoc_interface.c **** * http://www.pervasivedisplays.com/products/271
  53:eInk Library/cy_eink_psoc_interface.c **** *******************************************************************************/
  54:eInk Library/cy_eink_psoc_interface.c **** 
  55:eInk Library/cy_eink_psoc_interface.c **** /* Header file includes */
  56:eInk Library/cy_eink_psoc_interface.c **** #include "cy_eink_psoc_interface.h"
  57:eInk Library/cy_eink_psoc_interface.c **** 
  58:eInk Library/cy_eink_psoc_interface.c **** /*******************************************************************************
  59:eInk Library/cy_eink_psoc_interface.c **** * Function Name: void Cy_EINK_TimerInit(void)
  60:eInk Library/cy_eink_psoc_interface.c **** ********************************************************************************
  61:eInk Library/cy_eink_psoc_interface.c **** *
  62:eInk Library/cy_eink_psoc_interface.c **** * Summary:
  63:eInk Library/cy_eink_psoc_interface.c **** *  This function clears and initializes the E-INK Timer
  64:eInk Library/cy_eink_psoc_interface.c **** *
  65:eInk Library/cy_eink_psoc_interface.c **** * Parameters:
  66:eInk Library/cy_eink_psoc_interface.c **** *  None
  67:eInk Library/cy_eink_psoc_interface.c **** *
  68:eInk Library/cy_eink_psoc_interface.c **** * Return:
  69:eInk Library/cy_eink_psoc_interface.c **** *  None
  70:eInk Library/cy_eink_psoc_interface.c **** *
  71:eInk Library/cy_eink_psoc_interface.c **** * Side Effects:
  72:eInk Library/cy_eink_psoc_interface.c **** *  None
  73:eInk Library/cy_eink_psoc_interface.c **** *******************************************************************************/
  74:eInk Library/cy_eink_psoc_interface.c **** void Cy_EINK_TimerInit(void)
  75:eInk Library/cy_eink_psoc_interface.c **** {   
  29              		.loc 1 75 0
  30              		.cfi_startproc
  31              		@ args = 0, pretend = 0, frame = 0
  32              		@ frame_needed = 0, uses_anonymous_args = 0
  33 0000 08B5     		push	{r3, lr}
  34              		.cfi_def_cfa_offset 8
  35              		.cfi_offset 3, -8
  36              		.cfi_offset 14, -4
  37              	.LVL0:
  38              	.LBB104:
  39              	.LBB105:
ARM GAS  C:\Users\PC\AppData\Local\Temp\ccXlt19g.s 			page 3


  40              	.LBB106:
  41              		.file 2 "Generated_Source\\PSoC6\\pdl\\drivers/peripheral/tcpwm/cy_tcpwm_counter.h"
   1:Generated_Source\PSoC6\pdl\drivers/peripheral/tcpwm/cy_tcpwm_counter.h **** /***************************************************************************//**
   2:Generated_Source\PSoC6\pdl\drivers/peripheral/tcpwm/cy_tcpwm_counter.h **** * \file cy_tcpwm_counter.h
   3:Generated_Source\PSoC6\pdl\drivers/peripheral/tcpwm/cy_tcpwm_counter.h **** * \version 1.0.1
   4:Generated_Source\PSoC6\pdl\drivers/peripheral/tcpwm/cy_tcpwm_counter.h **** *
   5:Generated_Source\PSoC6\pdl\drivers/peripheral/tcpwm/cy_tcpwm_counter.h **** * \brief
   6:Generated_Source\PSoC6\pdl\drivers/peripheral/tcpwm/cy_tcpwm_counter.h **** * The header file of the TCPWM Timer Counter driver.
   7:Generated_Source\PSoC6\pdl\drivers/peripheral/tcpwm/cy_tcpwm_counter.h **** *
   8:Generated_Source\PSoC6\pdl\drivers/peripheral/tcpwm/cy_tcpwm_counter.h **** ********************************************************************************
   9:Generated_Source\PSoC6\pdl\drivers/peripheral/tcpwm/cy_tcpwm_counter.h **** * \copyright
  10:Generated_Source\PSoC6\pdl\drivers/peripheral/tcpwm/cy_tcpwm_counter.h **** * Copyright 2016-2018, Cypress Semiconductor Corporation. All rights reserved.
  11:Generated_Source\PSoC6\pdl\drivers/peripheral/tcpwm/cy_tcpwm_counter.h **** * You may use this file only in accordance with the license, terms, conditions,
  12:Generated_Source\PSoC6\pdl\drivers/peripheral/tcpwm/cy_tcpwm_counter.h **** * disclaimers, and limitations in the end user license agreement accompanying
  13:Generated_Source\PSoC6\pdl\drivers/peripheral/tcpwm/cy_tcpwm_counter.h **** * the software package with which this file was provided.
  14:Generated_Source\PSoC6\pdl\drivers/peripheral/tcpwm/cy_tcpwm_counter.h **** *******************************************************************************/
  15:Generated_Source\PSoC6\pdl\drivers/peripheral/tcpwm/cy_tcpwm_counter.h **** 
  16:Generated_Source\PSoC6\pdl\drivers/peripheral/tcpwm/cy_tcpwm_counter.h **** #if !defined(CY_TCPWM_COUNTER_H)
  17:Generated_Source\PSoC6\pdl\drivers/peripheral/tcpwm/cy_tcpwm_counter.h **** #define CY_TCPWM_COUNTER_H
  18:Generated_Source\PSoC6\pdl\drivers/peripheral/tcpwm/cy_tcpwm_counter.h **** 
  19:Generated_Source\PSoC6\pdl\drivers/peripheral/tcpwm/cy_tcpwm_counter.h **** #include "cy_tcpwm.h"
  20:Generated_Source\PSoC6\pdl\drivers/peripheral/tcpwm/cy_tcpwm_counter.h **** 
  21:Generated_Source\PSoC6\pdl\drivers/peripheral/tcpwm/cy_tcpwm_counter.h **** #if defined(__cplusplus)
  22:Generated_Source\PSoC6\pdl\drivers/peripheral/tcpwm/cy_tcpwm_counter.h **** extern "C" {
  23:Generated_Source\PSoC6\pdl\drivers/peripheral/tcpwm/cy_tcpwm_counter.h **** #endif
  24:Generated_Source\PSoC6\pdl\drivers/peripheral/tcpwm/cy_tcpwm_counter.h **** 
  25:Generated_Source\PSoC6\pdl\drivers/peripheral/tcpwm/cy_tcpwm_counter.h **** /**
  26:Generated_Source\PSoC6\pdl\drivers/peripheral/tcpwm/cy_tcpwm_counter.h **** * \addtogroup group_tcpwm_counter
  27:Generated_Source\PSoC6\pdl\drivers/peripheral/tcpwm/cy_tcpwm_counter.h **** * \{
  28:Generated_Source\PSoC6\pdl\drivers/peripheral/tcpwm/cy_tcpwm_counter.h **** * Driver API for Timer/Counter.
  29:Generated_Source\PSoC6\pdl\drivers/peripheral/tcpwm/cy_tcpwm_counter.h **** */
  30:Generated_Source\PSoC6\pdl\drivers/peripheral/tcpwm/cy_tcpwm_counter.h **** 
  31:Generated_Source\PSoC6\pdl\drivers/peripheral/tcpwm/cy_tcpwm_counter.h **** /**
  32:Generated_Source\PSoC6\pdl\drivers/peripheral/tcpwm/cy_tcpwm_counter.h **** * \defgroup group_tcpwm_macros_counter          Macros
  33:Generated_Source\PSoC6\pdl\drivers/peripheral/tcpwm/cy_tcpwm_counter.h **** * \defgroup group_tcpwm_functions_counter       Functions
  34:Generated_Source\PSoC6\pdl\drivers/peripheral/tcpwm/cy_tcpwm_counter.h **** * \defgroup group_tcpwm_data_structures_counter Data Structures
  35:Generated_Source\PSoC6\pdl\drivers/peripheral/tcpwm/cy_tcpwm_counter.h **** * \} */
  36:Generated_Source\PSoC6\pdl\drivers/peripheral/tcpwm/cy_tcpwm_counter.h **** 
  37:Generated_Source\PSoC6\pdl\drivers/peripheral/tcpwm/cy_tcpwm_counter.h **** /**
  38:Generated_Source\PSoC6\pdl\drivers/peripheral/tcpwm/cy_tcpwm_counter.h **** * \addtogroup group_tcpwm_data_structures_counter
  39:Generated_Source\PSoC6\pdl\drivers/peripheral/tcpwm/cy_tcpwm_counter.h **** * \{
  40:Generated_Source\PSoC6\pdl\drivers/peripheral/tcpwm/cy_tcpwm_counter.h **** */
  41:Generated_Source\PSoC6\pdl\drivers/peripheral/tcpwm/cy_tcpwm_counter.h **** 
  42:Generated_Source\PSoC6\pdl\drivers/peripheral/tcpwm/cy_tcpwm_counter.h **** /** Counter Timer configuration structure */
  43:Generated_Source\PSoC6\pdl\drivers/peripheral/tcpwm/cy_tcpwm_counter.h **** typedef struct cy_stc_tcpwm_counter_config
  44:Generated_Source\PSoC6\pdl\drivers/peripheral/tcpwm/cy_tcpwm_counter.h **** {
  45:Generated_Source\PSoC6\pdl\drivers/peripheral/tcpwm/cy_tcpwm_counter.h ****     uint32_t    period;             /**< Sets the period of the counter */
  46:Generated_Source\PSoC6\pdl\drivers/peripheral/tcpwm/cy_tcpwm_counter.h ****     /** Sets the clock prescaler inside the TCWPM block. See \ref group_tcpwm_counter_clk_prescaler
  47:Generated_Source\PSoC6\pdl\drivers/peripheral/tcpwm/cy_tcpwm_counter.h ****     uint32_t    clockPrescaler;     
  48:Generated_Source\PSoC6\pdl\drivers/peripheral/tcpwm/cy_tcpwm_counter.h ****     uint32_t    runMode;            /**< Sets the Counter Timer Run mode. See \ref group_tcpwm_coun
  49:Generated_Source\PSoC6\pdl\drivers/peripheral/tcpwm/cy_tcpwm_counter.h ****     uint32_t    countDirection;     /**< Sets the counter direction. See \ref group_tcpwm_counter_d
  50:Generated_Source\PSoC6\pdl\drivers/peripheral/tcpwm/cy_tcpwm_counter.h ****     /** The counter can either compare or capture a value. See \ref group_tcpwm_counter_compare_cap
  51:Generated_Source\PSoC6\pdl\drivers/peripheral/tcpwm/cy_tcpwm_counter.h ****     uint32_t    compareOrCapture;   
  52:Generated_Source\PSoC6\pdl\drivers/peripheral/tcpwm/cy_tcpwm_counter.h ****     uint32_t    compare0;           /**< Sets the value for Compare0*/
  53:Generated_Source\PSoC6\pdl\drivers/peripheral/tcpwm/cy_tcpwm_counter.h ****     uint32_t    compare1;           /**< Sets the value for Compare1*/
  54:Generated_Source\PSoC6\pdl\drivers/peripheral/tcpwm/cy_tcpwm_counter.h ****     bool        enableCompareSwap;  /**< If enabled, the compare values are swapped each time the c
  55:Generated_Source\PSoC6\pdl\drivers/peripheral/tcpwm/cy_tcpwm_counter.h ****     /** Enabled an interrupt on the terminal count, capture or compare. See \ref group_tcpwm_interr
ARM GAS  C:\Users\PC\AppData\Local\Temp\ccXlt19g.s 			page 4


  56:Generated_Source\PSoC6\pdl\drivers/peripheral/tcpwm/cy_tcpwm_counter.h ****     uint32_t    interruptSources;
  57:Generated_Source\PSoC6\pdl\drivers/peripheral/tcpwm/cy_tcpwm_counter.h ****     uint32_t    captureInputMode;   /**< Configures how the capture input behaves. See \ref group_t
  58:Generated_Source\PSoC6\pdl\drivers/peripheral/tcpwm/cy_tcpwm_counter.h ****     /** Selects which input the capture uses, the inputs are device-specific. See \ref group_tcpwm_
  59:Generated_Source\PSoC6\pdl\drivers/peripheral/tcpwm/cy_tcpwm_counter.h ****     uint32_t    captureInput;
  60:Generated_Source\PSoC6\pdl\drivers/peripheral/tcpwm/cy_tcpwm_counter.h ****     uint32_t    reloadInputMode;    /**< Configures how the reload input behaves. See \ref group_tc
  61:Generated_Source\PSoC6\pdl\drivers/peripheral/tcpwm/cy_tcpwm_counter.h ****     /** Selects which input the reload uses, the inputs are device-specific. See \ref group_tcpwm_i
  62:Generated_Source\PSoC6\pdl\drivers/peripheral/tcpwm/cy_tcpwm_counter.h ****     uint32_t    reloadInput;
  63:Generated_Source\PSoC6\pdl\drivers/peripheral/tcpwm/cy_tcpwm_counter.h ****     uint32_t    startInputMode;     /**< Configures how the start input behaves. See \ref group_tcp
  64:Generated_Source\PSoC6\pdl\drivers/peripheral/tcpwm/cy_tcpwm_counter.h ****     /** Selects which input the start uses, the inputs are device-specific. See \ref group_tcpwm_in
  65:Generated_Source\PSoC6\pdl\drivers/peripheral/tcpwm/cy_tcpwm_counter.h ****     uint32_t    startInput;
  66:Generated_Source\PSoC6\pdl\drivers/peripheral/tcpwm/cy_tcpwm_counter.h ****     uint32_t    stopInputMode;      /**< Configures how the stop input behaves. See \ref group_tcpw
  67:Generated_Source\PSoC6\pdl\drivers/peripheral/tcpwm/cy_tcpwm_counter.h ****     /** Selects which input the stop uses, the inputs are device-specific. See \ref group_tcpwm_inp
  68:Generated_Source\PSoC6\pdl\drivers/peripheral/tcpwm/cy_tcpwm_counter.h ****     uint32_t    stopInput;
  69:Generated_Source\PSoC6\pdl\drivers/peripheral/tcpwm/cy_tcpwm_counter.h ****     uint32_t    countInputMode;     /**< Configures how the count input behaves. See \ref group_tcp
  70:Generated_Source\PSoC6\pdl\drivers/peripheral/tcpwm/cy_tcpwm_counter.h ****     /** Selects which input the count uses, the inputs are device-specific. See \ref group_tcpwm_in
  71:Generated_Source\PSoC6\pdl\drivers/peripheral/tcpwm/cy_tcpwm_counter.h ****     uint32_t    countInput;
  72:Generated_Source\PSoC6\pdl\drivers/peripheral/tcpwm/cy_tcpwm_counter.h **** }cy_stc_tcpwm_counter_config_t;
  73:Generated_Source\PSoC6\pdl\drivers/peripheral/tcpwm/cy_tcpwm_counter.h **** /** \} group_tcpwm_data_structures_counter */
  74:Generated_Source\PSoC6\pdl\drivers/peripheral/tcpwm/cy_tcpwm_counter.h **** 
  75:Generated_Source\PSoC6\pdl\drivers/peripheral/tcpwm/cy_tcpwm_counter.h **** /**
  76:Generated_Source\PSoC6\pdl\drivers/peripheral/tcpwm/cy_tcpwm_counter.h **** * \addtogroup group_tcpwm_macros_counter
  77:Generated_Source\PSoC6\pdl\drivers/peripheral/tcpwm/cy_tcpwm_counter.h **** * \{
  78:Generated_Source\PSoC6\pdl\drivers/peripheral/tcpwm/cy_tcpwm_counter.h **** * \defgroup group_tcpwm_counter_run_modes Counter Run Modes
  79:Generated_Source\PSoC6\pdl\drivers/peripheral/tcpwm/cy_tcpwm_counter.h **** * \{
  80:Generated_Source\PSoC6\pdl\drivers/peripheral/tcpwm/cy_tcpwm_counter.h **** * Run modes for the counter timer.
  81:Generated_Source\PSoC6\pdl\drivers/peripheral/tcpwm/cy_tcpwm_counter.h **** */
  82:Generated_Source\PSoC6\pdl\drivers/peripheral/tcpwm/cy_tcpwm_counter.h **** #define CY_TCPWM_COUNTER_ONESHOT                (1U)    /**< Counter runs once and then stops */
  83:Generated_Source\PSoC6\pdl\drivers/peripheral/tcpwm/cy_tcpwm_counter.h **** #define CY_TCPWM_COUNTER_CONTINUOUS             (0U)    /**< Counter runs forever */
  84:Generated_Source\PSoC6\pdl\drivers/peripheral/tcpwm/cy_tcpwm_counter.h **** /** \} group_tcpwm_counter_run_modes */
  85:Generated_Source\PSoC6\pdl\drivers/peripheral/tcpwm/cy_tcpwm_counter.h **** 
  86:Generated_Source\PSoC6\pdl\drivers/peripheral/tcpwm/cy_tcpwm_counter.h **** /** \defgroup group_tcpwm_counter_direction Counter Direction
  87:Generated_Source\PSoC6\pdl\drivers/peripheral/tcpwm/cy_tcpwm_counter.h **** * The counter directions.
  88:Generated_Source\PSoC6\pdl\drivers/peripheral/tcpwm/cy_tcpwm_counter.h **** * \{
  89:Generated_Source\PSoC6\pdl\drivers/peripheral/tcpwm/cy_tcpwm_counter.h **** */
  90:Generated_Source\PSoC6\pdl\drivers/peripheral/tcpwm/cy_tcpwm_counter.h **** #define CY_TCPWM_COUNTER_COUNT_UP               (0U)    /**< Counter counts up */
  91:Generated_Source\PSoC6\pdl\drivers/peripheral/tcpwm/cy_tcpwm_counter.h **** #define CY_TCPWM_COUNTER_COUNT_DOWN             (1U)    /**< Counter counts down */
  92:Generated_Source\PSoC6\pdl\drivers/peripheral/tcpwm/cy_tcpwm_counter.h **** /** Counter counts up and down terminal count only occurs on underflow. */
  93:Generated_Source\PSoC6\pdl\drivers/peripheral/tcpwm/cy_tcpwm_counter.h **** #define CY_TCPWM_COUNTER_COUNT_UP_DOWN_1        (2U)
  94:Generated_Source\PSoC6\pdl\drivers/peripheral/tcpwm/cy_tcpwm_counter.h **** /** Counter counts up and down terminal count occurs on both overflow and underflow. */
  95:Generated_Source\PSoC6\pdl\drivers/peripheral/tcpwm/cy_tcpwm_counter.h **** #define CY_TCPWM_COUNTER_COUNT_UP_DOWN_2        (3U)
  96:Generated_Source\PSoC6\pdl\drivers/peripheral/tcpwm/cy_tcpwm_counter.h **** /** \} group_tcpwm_counter_direction */
  97:Generated_Source\PSoC6\pdl\drivers/peripheral/tcpwm/cy_tcpwm_counter.h **** 
  98:Generated_Source\PSoC6\pdl\drivers/peripheral/tcpwm/cy_tcpwm_counter.h **** /** \defgroup group_tcpwm_counter_clk_prescalers Counter CLK Prescalers
  99:Generated_Source\PSoC6\pdl\drivers/peripheral/tcpwm/cy_tcpwm_counter.h **** * \{
 100:Generated_Source\PSoC6\pdl\drivers/peripheral/tcpwm/cy_tcpwm_counter.h **** * The clock prescaler values.
 101:Generated_Source\PSoC6\pdl\drivers/peripheral/tcpwm/cy_tcpwm_counter.h **** */
 102:Generated_Source\PSoC6\pdl\drivers/peripheral/tcpwm/cy_tcpwm_counter.h **** #define CY_TCPWM_COUNTER_PRESCALER_DIVBY_1      (0U) /**< Divide by 1 */
 103:Generated_Source\PSoC6\pdl\drivers/peripheral/tcpwm/cy_tcpwm_counter.h **** #define CY_TCPWM_COUNTER_PRESCALER_DIVBY_2      (1U) /**< Divide by 2 */
 104:Generated_Source\PSoC6\pdl\drivers/peripheral/tcpwm/cy_tcpwm_counter.h **** #define CY_TCPWM_COUNTER_PRESCALER_DIVBY_4      (2U) /**< Divide by 4 */
 105:Generated_Source\PSoC6\pdl\drivers/peripheral/tcpwm/cy_tcpwm_counter.h **** #define CY_TCPWM_COUNTER_PRESCALER_DIVBY_8      (3U) /**< Divide by 8 */
 106:Generated_Source\PSoC6\pdl\drivers/peripheral/tcpwm/cy_tcpwm_counter.h **** #define CY_TCPWM_COUNTER_PRESCALER_DIVBY_16     (4U) /**< Divide by 16 */
 107:Generated_Source\PSoC6\pdl\drivers/peripheral/tcpwm/cy_tcpwm_counter.h **** #define CY_TCPWM_COUNTER_PRESCALER_DIVBY_32     (5U) /**< Divide by 32 */
 108:Generated_Source\PSoC6\pdl\drivers/peripheral/tcpwm/cy_tcpwm_counter.h **** #define CY_TCPWM_COUNTER_PRESCALER_DIVBY_64     (6U) /**< Divide by 64 */
 109:Generated_Source\PSoC6\pdl\drivers/peripheral/tcpwm/cy_tcpwm_counter.h **** #define CY_TCPWM_COUNTER_PRESCALER_DIVBY_128    (7U) /**< Divide by 128 */
 110:Generated_Source\PSoC6\pdl\drivers/peripheral/tcpwm/cy_tcpwm_counter.h **** /** \} group_tcpwm_counter_clk_prescalers */
 111:Generated_Source\PSoC6\pdl\drivers/peripheral/tcpwm/cy_tcpwm_counter.h **** 
 112:Generated_Source\PSoC6\pdl\drivers/peripheral/tcpwm/cy_tcpwm_counter.h **** /** \defgroup group_tcpwm_counter_compare_capture Counter Compare Capture
ARM GAS  C:\Users\PC\AppData\Local\Temp\ccXlt19g.s 			page 5


 113:Generated_Source\PSoC6\pdl\drivers/peripheral/tcpwm/cy_tcpwm_counter.h **** * \{
 114:Generated_Source\PSoC6\pdl\drivers/peripheral/tcpwm/cy_tcpwm_counter.h **** * A compare or capture mode.
 115:Generated_Source\PSoC6\pdl\drivers/peripheral/tcpwm/cy_tcpwm_counter.h **** */
 116:Generated_Source\PSoC6\pdl\drivers/peripheral/tcpwm/cy_tcpwm_counter.h **** #define CY_TCPWM_COUNTER_MODE_CAPTURE           (2U)  /**< Timer/Counter is in Capture Mode */
 117:Generated_Source\PSoC6\pdl\drivers/peripheral/tcpwm/cy_tcpwm_counter.h **** #define CY_TCPWM_COUNTER_MODE_COMPARE           (0U)  /**< Timer/Counter is in Compare Mode */
 118:Generated_Source\PSoC6\pdl\drivers/peripheral/tcpwm/cy_tcpwm_counter.h **** /** \} group_tcpwm_counter_compare_capture */
 119:Generated_Source\PSoC6\pdl\drivers/peripheral/tcpwm/cy_tcpwm_counter.h **** 
 120:Generated_Source\PSoC6\pdl\drivers/peripheral/tcpwm/cy_tcpwm_counter.h **** /** \defgroup group_tcpwm_counter_status Counter Status
 121:Generated_Source\PSoC6\pdl\drivers/peripheral/tcpwm/cy_tcpwm_counter.h **** * \{
 122:Generated_Source\PSoC6\pdl\drivers/peripheral/tcpwm/cy_tcpwm_counter.h **** * The counter status.
 123:Generated_Source\PSoC6\pdl\drivers/peripheral/tcpwm/cy_tcpwm_counter.h **** */
 124:Generated_Source\PSoC6\pdl\drivers/peripheral/tcpwm/cy_tcpwm_counter.h **** #define CY_TCPWM_COUNTER_STATUS_DOWN_COUNTING   (0x1UL)        /**< Timer/Counter is down counting 
 125:Generated_Source\PSoC6\pdl\drivers/peripheral/tcpwm/cy_tcpwm_counter.h **** #define CY_TCPWM_COUNTER_STATUS_UP_COUNTING     (0x2UL)        /**< Timer/Counter is up counting */
 126:Generated_Source\PSoC6\pdl\drivers/peripheral/tcpwm/cy_tcpwm_counter.h **** 
 127:Generated_Source\PSoC6\pdl\drivers/peripheral/tcpwm/cy_tcpwm_counter.h **** /** Timer/Counter is running */
 128:Generated_Source\PSoC6\pdl\drivers/peripheral/tcpwm/cy_tcpwm_counter.h **** #define CY_TCPWM_COUNTER_STATUS_COUNTER_RUNNING (TCPWM_CNT_STATUS_RUNNING_Msk)
 129:Generated_Source\PSoC6\pdl\drivers/peripheral/tcpwm/cy_tcpwm_counter.h **** /** \} group_tcpwm_counter_status */
 130:Generated_Source\PSoC6\pdl\drivers/peripheral/tcpwm/cy_tcpwm_counter.h **** /** \} group_tcpwm_macros_counter */
 131:Generated_Source\PSoC6\pdl\drivers/peripheral/tcpwm/cy_tcpwm_counter.h **** 
 132:Generated_Source\PSoC6\pdl\drivers/peripheral/tcpwm/cy_tcpwm_counter.h **** 
 133:Generated_Source\PSoC6\pdl\drivers/peripheral/tcpwm/cy_tcpwm_counter.h **** /*******************************************************************************
 134:Generated_Source\PSoC6\pdl\drivers/peripheral/tcpwm/cy_tcpwm_counter.h **** *        Function Prototypes
 135:Generated_Source\PSoC6\pdl\drivers/peripheral/tcpwm/cy_tcpwm_counter.h **** *******************************************************************************/
 136:Generated_Source\PSoC6\pdl\drivers/peripheral/tcpwm/cy_tcpwm_counter.h **** 
 137:Generated_Source\PSoC6\pdl\drivers/peripheral/tcpwm/cy_tcpwm_counter.h **** /**
 138:Generated_Source\PSoC6\pdl\drivers/peripheral/tcpwm/cy_tcpwm_counter.h **** * \addtogroup group_tcpwm_functions_counter
 139:Generated_Source\PSoC6\pdl\drivers/peripheral/tcpwm/cy_tcpwm_counter.h **** * \{
 140:Generated_Source\PSoC6\pdl\drivers/peripheral/tcpwm/cy_tcpwm_counter.h **** */
 141:Generated_Source\PSoC6\pdl\drivers/peripheral/tcpwm/cy_tcpwm_counter.h **** cy_en_tcpwm_status_t Cy_TCPWM_Counter_Init(TCPWM_Type *base, uint32_t cntNum, 
 142:Generated_Source\PSoC6\pdl\drivers/peripheral/tcpwm/cy_tcpwm_counter.h ****                                            cy_stc_tcpwm_counter_config_t const *config);
 143:Generated_Source\PSoC6\pdl\drivers/peripheral/tcpwm/cy_tcpwm_counter.h **** void Cy_TCPWM_Counter_DeInit(TCPWM_Type *base, uint32_t cntNum, cy_stc_tcpwm_counter_config_t const
 144:Generated_Source\PSoC6\pdl\drivers/peripheral/tcpwm/cy_tcpwm_counter.h **** __STATIC_INLINE void Cy_TCPWM_Counter_Enable(TCPWM_Type *base, uint32_t cntNum);
 145:Generated_Source\PSoC6\pdl\drivers/peripheral/tcpwm/cy_tcpwm_counter.h **** __STATIC_INLINE void Cy_TCPWM_Counter_Disable(TCPWM_Type *base, uint32_t cntNum);
 146:Generated_Source\PSoC6\pdl\drivers/peripheral/tcpwm/cy_tcpwm_counter.h **** __STATIC_INLINE uint32_t Cy_TCPWM_Counter_GetStatus(TCPWM_Type const *base, uint32_t cntNum);
 147:Generated_Source\PSoC6\pdl\drivers/peripheral/tcpwm/cy_tcpwm_counter.h **** __STATIC_INLINE uint32_t Cy_TCPWM_Counter_GetCapture(TCPWM_Type const *base, uint32_t cntNum);
 148:Generated_Source\PSoC6\pdl\drivers/peripheral/tcpwm/cy_tcpwm_counter.h **** __STATIC_INLINE uint32_t Cy_TCPWM_Counter_GetCaptureBuf(TCPWM_Type const *base, uint32_t cntNum);
 149:Generated_Source\PSoC6\pdl\drivers/peripheral/tcpwm/cy_tcpwm_counter.h **** __STATIC_INLINE void Cy_TCPWM_Counter_SetCompare0(TCPWM_Type *base, uint32_t cntNum, uint32_t compa
 150:Generated_Source\PSoC6\pdl\drivers/peripheral/tcpwm/cy_tcpwm_counter.h **** __STATIC_INLINE uint32_t Cy_TCPWM_Counter_GetCompare0(TCPWM_Type const *base, uint32_t cntNum);
 151:Generated_Source\PSoC6\pdl\drivers/peripheral/tcpwm/cy_tcpwm_counter.h **** __STATIC_INLINE void Cy_TCPWM_Counter_SetCompare1(TCPWM_Type *base, uint32_t cntNum, uint32_t compa
 152:Generated_Source\PSoC6\pdl\drivers/peripheral/tcpwm/cy_tcpwm_counter.h **** __STATIC_INLINE uint32_t Cy_TCPWM_Counter_GetCompare1(TCPWM_Type const *base, uint32_t cntNum);
 153:Generated_Source\PSoC6\pdl\drivers/peripheral/tcpwm/cy_tcpwm_counter.h **** __STATIC_INLINE void Cy_TCPWM_Counter_EnableCompareSwap(TCPWM_Type *base, uint32_t cntNum, bool ena
 154:Generated_Source\PSoC6\pdl\drivers/peripheral/tcpwm/cy_tcpwm_counter.h **** __STATIC_INLINE void Cy_TCPWM_Counter_SetCounter(TCPWM_Type *base, uint32_t cntNum, uint32_t count)
 155:Generated_Source\PSoC6\pdl\drivers/peripheral/tcpwm/cy_tcpwm_counter.h **** __STATIC_INLINE uint32_t Cy_TCPWM_Counter_GetCounter(TCPWM_Type const *base, uint32_t cntNum);
 156:Generated_Source\PSoC6\pdl\drivers/peripheral/tcpwm/cy_tcpwm_counter.h **** __STATIC_INLINE void Cy_TCPWM_Counter_SetPeriod(TCPWM_Type *base, uint32_t cntNum, uint32_t period)
 157:Generated_Source\PSoC6\pdl\drivers/peripheral/tcpwm/cy_tcpwm_counter.h **** __STATIC_INLINE uint32_t Cy_TCPWM_Counter_GetPeriod(TCPWM_Type const *base, uint32_t cntNum);
 158:Generated_Source\PSoC6\pdl\drivers/peripheral/tcpwm/cy_tcpwm_counter.h **** 
 159:Generated_Source\PSoC6\pdl\drivers/peripheral/tcpwm/cy_tcpwm_counter.h **** 
 160:Generated_Source\PSoC6\pdl\drivers/peripheral/tcpwm/cy_tcpwm_counter.h **** /*******************************************************************************
 161:Generated_Source\PSoC6\pdl\drivers/peripheral/tcpwm/cy_tcpwm_counter.h **** * Function Name: Cy_TCPWM_Counter_Enable
 162:Generated_Source\PSoC6\pdl\drivers/peripheral/tcpwm/cy_tcpwm_counter.h **** ****************************************************************************//**
 163:Generated_Source\PSoC6\pdl\drivers/peripheral/tcpwm/cy_tcpwm_counter.h **** *
 164:Generated_Source\PSoC6\pdl\drivers/peripheral/tcpwm/cy_tcpwm_counter.h **** * Enables the counter in the TCPWM block for the Counter operation.
 165:Generated_Source\PSoC6\pdl\drivers/peripheral/tcpwm/cy_tcpwm_counter.h **** *
 166:Generated_Source\PSoC6\pdl\drivers/peripheral/tcpwm/cy_tcpwm_counter.h **** * \param base
 167:Generated_Source\PSoC6\pdl\drivers/peripheral/tcpwm/cy_tcpwm_counter.h **** * The pointer to a TCPWM instance.
 168:Generated_Source\PSoC6\pdl\drivers/peripheral/tcpwm/cy_tcpwm_counter.h **** *
 169:Generated_Source\PSoC6\pdl\drivers/peripheral/tcpwm/cy_tcpwm_counter.h **** * \param cntNum 
ARM GAS  C:\Users\PC\AppData\Local\Temp\ccXlt19g.s 			page 6


 170:Generated_Source\PSoC6\pdl\drivers/peripheral/tcpwm/cy_tcpwm_counter.h **** * The Counter instance number in the selected TCPWM.
 171:Generated_Source\PSoC6\pdl\drivers/peripheral/tcpwm/cy_tcpwm_counter.h **** *
 172:Generated_Source\PSoC6\pdl\drivers/peripheral/tcpwm/cy_tcpwm_counter.h **** * \funcusage
 173:Generated_Source\PSoC6\pdl\drivers/peripheral/tcpwm/cy_tcpwm_counter.h **** * \snippet tcpwm/tcpwm_v1_0_counter_sut_01.cydsn/main_cm4.c snippet_Cy_TCPWM_Counter_Init
 174:Generated_Source\PSoC6\pdl\drivers/peripheral/tcpwm/cy_tcpwm_counter.h **** *
 175:Generated_Source\PSoC6\pdl\drivers/peripheral/tcpwm/cy_tcpwm_counter.h **** *******************************************************************************/
 176:Generated_Source\PSoC6\pdl\drivers/peripheral/tcpwm/cy_tcpwm_counter.h **** __STATIC_INLINE void Cy_TCPWM_Counter_Enable(TCPWM_Type *base, uint32_t cntNum)
 177:Generated_Source\PSoC6\pdl\drivers/peripheral/tcpwm/cy_tcpwm_counter.h **** {
 178:Generated_Source\PSoC6\pdl\drivers/peripheral/tcpwm/cy_tcpwm_counter.h ****     base->CTRL_SET = (1UL << cntNum);    
 179:Generated_Source\PSoC6\pdl\drivers/peripheral/tcpwm/cy_tcpwm_counter.h **** }
 180:Generated_Source\PSoC6\pdl\drivers/peripheral/tcpwm/cy_tcpwm_counter.h **** 
 181:Generated_Source\PSoC6\pdl\drivers/peripheral/tcpwm/cy_tcpwm_counter.h **** 
 182:Generated_Source\PSoC6\pdl\drivers/peripheral/tcpwm/cy_tcpwm_counter.h **** /*******************************************************************************
 183:Generated_Source\PSoC6\pdl\drivers/peripheral/tcpwm/cy_tcpwm_counter.h **** * Function Name: Cy_TCPWM_Counter_Disable
 184:Generated_Source\PSoC6\pdl\drivers/peripheral/tcpwm/cy_tcpwm_counter.h **** ****************************************************************************//**
 185:Generated_Source\PSoC6\pdl\drivers/peripheral/tcpwm/cy_tcpwm_counter.h **** *
 186:Generated_Source\PSoC6\pdl\drivers/peripheral/tcpwm/cy_tcpwm_counter.h **** * Disables the counter in the TCPWM block.
 187:Generated_Source\PSoC6\pdl\drivers/peripheral/tcpwm/cy_tcpwm_counter.h **** *
 188:Generated_Source\PSoC6\pdl\drivers/peripheral/tcpwm/cy_tcpwm_counter.h **** * \param base
 189:Generated_Source\PSoC6\pdl\drivers/peripheral/tcpwm/cy_tcpwm_counter.h **** * The pointer to a TCPWM instance.
 190:Generated_Source\PSoC6\pdl\drivers/peripheral/tcpwm/cy_tcpwm_counter.h **** *
 191:Generated_Source\PSoC6\pdl\drivers/peripheral/tcpwm/cy_tcpwm_counter.h **** * \param cntNum 
 192:Generated_Source\PSoC6\pdl\drivers/peripheral/tcpwm/cy_tcpwm_counter.h **** * The Counter instance number in the selected TCPWM.
 193:Generated_Source\PSoC6\pdl\drivers/peripheral/tcpwm/cy_tcpwm_counter.h **** *
 194:Generated_Source\PSoC6\pdl\drivers/peripheral/tcpwm/cy_tcpwm_counter.h **** * \funcusage
 195:Generated_Source\PSoC6\pdl\drivers/peripheral/tcpwm/cy_tcpwm_counter.h **** * \snippet tcpwm/tcpwm_v1_0_counter_sut_01.cydsn/main_cm4.c snippet_Cy_TCPWM_Counter_DeInit
 196:Generated_Source\PSoC6\pdl\drivers/peripheral/tcpwm/cy_tcpwm_counter.h **** *
 197:Generated_Source\PSoC6\pdl\drivers/peripheral/tcpwm/cy_tcpwm_counter.h **** *******************************************************************************/
 198:Generated_Source\PSoC6\pdl\drivers/peripheral/tcpwm/cy_tcpwm_counter.h **** __STATIC_INLINE void Cy_TCPWM_Counter_Disable(TCPWM_Type *base, uint32_t cntNum)
 199:Generated_Source\PSoC6\pdl\drivers/peripheral/tcpwm/cy_tcpwm_counter.h **** {
 200:Generated_Source\PSoC6\pdl\drivers/peripheral/tcpwm/cy_tcpwm_counter.h ****     base->CTRL_CLR = (1UL << cntNum);
 201:Generated_Source\PSoC6\pdl\drivers/peripheral/tcpwm/cy_tcpwm_counter.h **** }
 202:Generated_Source\PSoC6\pdl\drivers/peripheral/tcpwm/cy_tcpwm_counter.h **** 
 203:Generated_Source\PSoC6\pdl\drivers/peripheral/tcpwm/cy_tcpwm_counter.h **** 
 204:Generated_Source\PSoC6\pdl\drivers/peripheral/tcpwm/cy_tcpwm_counter.h **** /*******************************************************************************
 205:Generated_Source\PSoC6\pdl\drivers/peripheral/tcpwm/cy_tcpwm_counter.h **** * Function Name: Cy_TCPWM_Counter_GetStatus
 206:Generated_Source\PSoC6\pdl\drivers/peripheral/tcpwm/cy_tcpwm_counter.h **** ****************************************************************************//**
 207:Generated_Source\PSoC6\pdl\drivers/peripheral/tcpwm/cy_tcpwm_counter.h **** *
 208:Generated_Source\PSoC6\pdl\drivers/peripheral/tcpwm/cy_tcpwm_counter.h **** * Returns the status of the Counter Timer.
 209:Generated_Source\PSoC6\pdl\drivers/peripheral/tcpwm/cy_tcpwm_counter.h **** *
 210:Generated_Source\PSoC6\pdl\drivers/peripheral/tcpwm/cy_tcpwm_counter.h **** * \param base
 211:Generated_Source\PSoC6\pdl\drivers/peripheral/tcpwm/cy_tcpwm_counter.h **** * The pointer to a TCPWM instance.
 212:Generated_Source\PSoC6\pdl\drivers/peripheral/tcpwm/cy_tcpwm_counter.h **** *
 213:Generated_Source\PSoC6\pdl\drivers/peripheral/tcpwm/cy_tcpwm_counter.h **** * \param cntNum 
 214:Generated_Source\PSoC6\pdl\drivers/peripheral/tcpwm/cy_tcpwm_counter.h **** * The Counter instance number in the selected TCPWM.
 215:Generated_Source\PSoC6\pdl\drivers/peripheral/tcpwm/cy_tcpwm_counter.h **** *
 216:Generated_Source\PSoC6\pdl\drivers/peripheral/tcpwm/cy_tcpwm_counter.h **** * \return
 217:Generated_Source\PSoC6\pdl\drivers/peripheral/tcpwm/cy_tcpwm_counter.h **** * The status. See \ref group_tcpwm_counter_status
 218:Generated_Source\PSoC6\pdl\drivers/peripheral/tcpwm/cy_tcpwm_counter.h **** *
 219:Generated_Source\PSoC6\pdl\drivers/peripheral/tcpwm/cy_tcpwm_counter.h **** * \funcusage
 220:Generated_Source\PSoC6\pdl\drivers/peripheral/tcpwm/cy_tcpwm_counter.h **** * \snippet tcpwm/tcpwm_v1_0_counter_sut_01.cydsn/main_cm4.c snippet_Cy_TCPWM_Counter_GetStatus
 221:Generated_Source\PSoC6\pdl\drivers/peripheral/tcpwm/cy_tcpwm_counter.h **** *
 222:Generated_Source\PSoC6\pdl\drivers/peripheral/tcpwm/cy_tcpwm_counter.h **** *******************************************************************************/
 223:Generated_Source\PSoC6\pdl\drivers/peripheral/tcpwm/cy_tcpwm_counter.h **** __STATIC_INLINE uint32_t Cy_TCPWM_Counter_GetStatus(TCPWM_Type const  *base, uint32_t cntNum)
 224:Generated_Source\PSoC6\pdl\drivers/peripheral/tcpwm/cy_tcpwm_counter.h **** {
 225:Generated_Source\PSoC6\pdl\drivers/peripheral/tcpwm/cy_tcpwm_counter.h ****     uint32_t status = base->CNT[cntNum].STATUS;
 226:Generated_Source\PSoC6\pdl\drivers/peripheral/tcpwm/cy_tcpwm_counter.h ****     
ARM GAS  C:\Users\PC\AppData\Local\Temp\ccXlt19g.s 			page 7


 227:Generated_Source\PSoC6\pdl\drivers/peripheral/tcpwm/cy_tcpwm_counter.h ****     /* Generates proper up counting status. Is not generated by HW */
 228:Generated_Source\PSoC6\pdl\drivers/peripheral/tcpwm/cy_tcpwm_counter.h ****     status &= ~CY_TCPWM_COUNTER_STATUS_UP_COUNTING;
 229:Generated_Source\PSoC6\pdl\drivers/peripheral/tcpwm/cy_tcpwm_counter.h ****     status |= ((~status & CY_TCPWM_COUNTER_STATUS_DOWN_COUNTING & (status >> TCPWM_CNT_STATUS_RUNNI
 230:Generated_Source\PSoC6\pdl\drivers/peripheral/tcpwm/cy_tcpwm_counter.h ****                CY_TCPWM_CNT_STATUS_UP_POS);
 231:Generated_Source\PSoC6\pdl\drivers/peripheral/tcpwm/cy_tcpwm_counter.h **** 
 232:Generated_Source\PSoC6\pdl\drivers/peripheral/tcpwm/cy_tcpwm_counter.h ****     return(status);
 233:Generated_Source\PSoC6\pdl\drivers/peripheral/tcpwm/cy_tcpwm_counter.h **** }
 234:Generated_Source\PSoC6\pdl\drivers/peripheral/tcpwm/cy_tcpwm_counter.h **** 
 235:Generated_Source\PSoC6\pdl\drivers/peripheral/tcpwm/cy_tcpwm_counter.h **** 
 236:Generated_Source\PSoC6\pdl\drivers/peripheral/tcpwm/cy_tcpwm_counter.h **** /*******************************************************************************
 237:Generated_Source\PSoC6\pdl\drivers/peripheral/tcpwm/cy_tcpwm_counter.h **** * Function Name: Cy_TCPWM_Counter_GetCapture
 238:Generated_Source\PSoC6\pdl\drivers/peripheral/tcpwm/cy_tcpwm_counter.h **** ****************************************************************************//**
 239:Generated_Source\PSoC6\pdl\drivers/peripheral/tcpwm/cy_tcpwm_counter.h **** *
 240:Generated_Source\PSoC6\pdl\drivers/peripheral/tcpwm/cy_tcpwm_counter.h **** * Returns the capture value when the capture mode is enabled.
 241:Generated_Source\PSoC6\pdl\drivers/peripheral/tcpwm/cy_tcpwm_counter.h **** *
 242:Generated_Source\PSoC6\pdl\drivers/peripheral/tcpwm/cy_tcpwm_counter.h **** * \param base
 243:Generated_Source\PSoC6\pdl\drivers/peripheral/tcpwm/cy_tcpwm_counter.h **** * The pointer to a TCPWM instance.
 244:Generated_Source\PSoC6\pdl\drivers/peripheral/tcpwm/cy_tcpwm_counter.h **** *
 245:Generated_Source\PSoC6\pdl\drivers/peripheral/tcpwm/cy_tcpwm_counter.h **** * \param cntNum 
 246:Generated_Source\PSoC6\pdl\drivers/peripheral/tcpwm/cy_tcpwm_counter.h **** * The Counter instance number in the selected TCPWM.
 247:Generated_Source\PSoC6\pdl\drivers/peripheral/tcpwm/cy_tcpwm_counter.h **** *
 248:Generated_Source\PSoC6\pdl\drivers/peripheral/tcpwm/cy_tcpwm_counter.h **** * \return
 249:Generated_Source\PSoC6\pdl\drivers/peripheral/tcpwm/cy_tcpwm_counter.h **** * The capture value.
 250:Generated_Source\PSoC6\pdl\drivers/peripheral/tcpwm/cy_tcpwm_counter.h **** *
 251:Generated_Source\PSoC6\pdl\drivers/peripheral/tcpwm/cy_tcpwm_counter.h **** * \funcusage
 252:Generated_Source\PSoC6\pdl\drivers/peripheral/tcpwm/cy_tcpwm_counter.h **** * \snippet tcpwm/tcpwm_v1_0_counter_sut_01.cydsn/main_cm4.c snippet_Cy_TCPWM_Counter_Capture
 253:Generated_Source\PSoC6\pdl\drivers/peripheral/tcpwm/cy_tcpwm_counter.h **** *
 254:Generated_Source\PSoC6\pdl\drivers/peripheral/tcpwm/cy_tcpwm_counter.h **** *******************************************************************************/
 255:Generated_Source\PSoC6\pdl\drivers/peripheral/tcpwm/cy_tcpwm_counter.h **** __STATIC_INLINE uint32_t Cy_TCPWM_Counter_GetCapture(TCPWM_Type const  *base, uint32_t cntNum)
 256:Generated_Source\PSoC6\pdl\drivers/peripheral/tcpwm/cy_tcpwm_counter.h **** {
 257:Generated_Source\PSoC6\pdl\drivers/peripheral/tcpwm/cy_tcpwm_counter.h ****     return(base->CNT[cntNum].CC);
 258:Generated_Source\PSoC6\pdl\drivers/peripheral/tcpwm/cy_tcpwm_counter.h **** }
 259:Generated_Source\PSoC6\pdl\drivers/peripheral/tcpwm/cy_tcpwm_counter.h **** 
 260:Generated_Source\PSoC6\pdl\drivers/peripheral/tcpwm/cy_tcpwm_counter.h **** 
 261:Generated_Source\PSoC6\pdl\drivers/peripheral/tcpwm/cy_tcpwm_counter.h **** /*******************************************************************************
 262:Generated_Source\PSoC6\pdl\drivers/peripheral/tcpwm/cy_tcpwm_counter.h **** * Function Name: Cy_TCPWM_Counter_GetCaptureBuf
 263:Generated_Source\PSoC6\pdl\drivers/peripheral/tcpwm/cy_tcpwm_counter.h **** ****************************************************************************//**
 264:Generated_Source\PSoC6\pdl\drivers/peripheral/tcpwm/cy_tcpwm_counter.h **** *
 265:Generated_Source\PSoC6\pdl\drivers/peripheral/tcpwm/cy_tcpwm_counter.h **** * Returns the buffered capture value when the capture mode is enabled.
 266:Generated_Source\PSoC6\pdl\drivers/peripheral/tcpwm/cy_tcpwm_counter.h **** *
 267:Generated_Source\PSoC6\pdl\drivers/peripheral/tcpwm/cy_tcpwm_counter.h **** * \param base
 268:Generated_Source\PSoC6\pdl\drivers/peripheral/tcpwm/cy_tcpwm_counter.h **** * The pointer to a TCPWM instance.
 269:Generated_Source\PSoC6\pdl\drivers/peripheral/tcpwm/cy_tcpwm_counter.h **** *
 270:Generated_Source\PSoC6\pdl\drivers/peripheral/tcpwm/cy_tcpwm_counter.h **** * \param cntNum 
 271:Generated_Source\PSoC6\pdl\drivers/peripheral/tcpwm/cy_tcpwm_counter.h **** * The Counter instance number in the selected TCPWM.
 272:Generated_Source\PSoC6\pdl\drivers/peripheral/tcpwm/cy_tcpwm_counter.h **** *
 273:Generated_Source\PSoC6\pdl\drivers/peripheral/tcpwm/cy_tcpwm_counter.h **** * \return
 274:Generated_Source\PSoC6\pdl\drivers/peripheral/tcpwm/cy_tcpwm_counter.h **** * The buffered capture value.
 275:Generated_Source\PSoC6\pdl\drivers/peripheral/tcpwm/cy_tcpwm_counter.h **** *
 276:Generated_Source\PSoC6\pdl\drivers/peripheral/tcpwm/cy_tcpwm_counter.h **** * \funcusage
 277:Generated_Source\PSoC6\pdl\drivers/peripheral/tcpwm/cy_tcpwm_counter.h **** * \snippet tcpwm/tcpwm_v1_0_counter_sut_01.cydsn/main_cm4.c snippet_Cy_TCPWM_Counter_Capture
 278:Generated_Source\PSoC6\pdl\drivers/peripheral/tcpwm/cy_tcpwm_counter.h **** *
 279:Generated_Source\PSoC6\pdl\drivers/peripheral/tcpwm/cy_tcpwm_counter.h **** *******************************************************************************/
 280:Generated_Source\PSoC6\pdl\drivers/peripheral/tcpwm/cy_tcpwm_counter.h **** __STATIC_INLINE uint32_t Cy_TCPWM_Counter_GetCaptureBuf(TCPWM_Type const  *base, uint32_t cntNum)
 281:Generated_Source\PSoC6\pdl\drivers/peripheral/tcpwm/cy_tcpwm_counter.h **** {
 282:Generated_Source\PSoC6\pdl\drivers/peripheral/tcpwm/cy_tcpwm_counter.h ****     return(base->CNT[cntNum].CC_BUFF);
 283:Generated_Source\PSoC6\pdl\drivers/peripheral/tcpwm/cy_tcpwm_counter.h **** }
ARM GAS  C:\Users\PC\AppData\Local\Temp\ccXlt19g.s 			page 8


 284:Generated_Source\PSoC6\pdl\drivers/peripheral/tcpwm/cy_tcpwm_counter.h **** 
 285:Generated_Source\PSoC6\pdl\drivers/peripheral/tcpwm/cy_tcpwm_counter.h **** 
 286:Generated_Source\PSoC6\pdl\drivers/peripheral/tcpwm/cy_tcpwm_counter.h **** /*******************************************************************************
 287:Generated_Source\PSoC6\pdl\drivers/peripheral/tcpwm/cy_tcpwm_counter.h **** * Function Name: Cy_TCPWM_Counter_SetCompare0
 288:Generated_Source\PSoC6\pdl\drivers/peripheral/tcpwm/cy_tcpwm_counter.h **** ****************************************************************************//**
 289:Generated_Source\PSoC6\pdl\drivers/peripheral/tcpwm/cy_tcpwm_counter.h **** *
 290:Generated_Source\PSoC6\pdl\drivers/peripheral/tcpwm/cy_tcpwm_counter.h **** * Sets the compare value for Compare0 when the compare mode is enabled.
 291:Generated_Source\PSoC6\pdl\drivers/peripheral/tcpwm/cy_tcpwm_counter.h **** *
 292:Generated_Source\PSoC6\pdl\drivers/peripheral/tcpwm/cy_tcpwm_counter.h **** * \param base
 293:Generated_Source\PSoC6\pdl\drivers/peripheral/tcpwm/cy_tcpwm_counter.h **** * The pointer to a TCPWM instance.
 294:Generated_Source\PSoC6\pdl\drivers/peripheral/tcpwm/cy_tcpwm_counter.h **** *
 295:Generated_Source\PSoC6\pdl\drivers/peripheral/tcpwm/cy_tcpwm_counter.h **** * \param cntNum 
 296:Generated_Source\PSoC6\pdl\drivers/peripheral/tcpwm/cy_tcpwm_counter.h **** * The Counter instance number in the selected TCPWM.
 297:Generated_Source\PSoC6\pdl\drivers/peripheral/tcpwm/cy_tcpwm_counter.h **** *
 298:Generated_Source\PSoC6\pdl\drivers/peripheral/tcpwm/cy_tcpwm_counter.h **** * \param compare0
 299:Generated_Source\PSoC6\pdl\drivers/peripheral/tcpwm/cy_tcpwm_counter.h **** * The Compare0 value.
 300:Generated_Source\PSoC6\pdl\drivers/peripheral/tcpwm/cy_tcpwm_counter.h **** *
 301:Generated_Source\PSoC6\pdl\drivers/peripheral/tcpwm/cy_tcpwm_counter.h **** * \funcusage
 302:Generated_Source\PSoC6\pdl\drivers/peripheral/tcpwm/cy_tcpwm_counter.h **** * \snippet tcpwm/tcpwm_v1_0_counter_sut_01.cydsn/main_cm4.c snippet_Cy_TCPWM_Counter_SetCompare0
 303:Generated_Source\PSoC6\pdl\drivers/peripheral/tcpwm/cy_tcpwm_counter.h **** *
 304:Generated_Source\PSoC6\pdl\drivers/peripheral/tcpwm/cy_tcpwm_counter.h **** *******************************************************************************/
 305:Generated_Source\PSoC6\pdl\drivers/peripheral/tcpwm/cy_tcpwm_counter.h **** __STATIC_INLINE void Cy_TCPWM_Counter_SetCompare0(TCPWM_Type *base, uint32_t cntNum,  uint32_t comp
 306:Generated_Source\PSoC6\pdl\drivers/peripheral/tcpwm/cy_tcpwm_counter.h **** {
 307:Generated_Source\PSoC6\pdl\drivers/peripheral/tcpwm/cy_tcpwm_counter.h ****     base->CNT[cntNum].CC = compare0;
 308:Generated_Source\PSoC6\pdl\drivers/peripheral/tcpwm/cy_tcpwm_counter.h **** }
 309:Generated_Source\PSoC6\pdl\drivers/peripheral/tcpwm/cy_tcpwm_counter.h **** 
 310:Generated_Source\PSoC6\pdl\drivers/peripheral/tcpwm/cy_tcpwm_counter.h **** 
 311:Generated_Source\PSoC6\pdl\drivers/peripheral/tcpwm/cy_tcpwm_counter.h **** /*******************************************************************************
 312:Generated_Source\PSoC6\pdl\drivers/peripheral/tcpwm/cy_tcpwm_counter.h **** * Function Name: Cy_TCPWM_Counter_GetCompare0
 313:Generated_Source\PSoC6\pdl\drivers/peripheral/tcpwm/cy_tcpwm_counter.h **** ****************************************************************************//**
 314:Generated_Source\PSoC6\pdl\drivers/peripheral/tcpwm/cy_tcpwm_counter.h **** *
 315:Generated_Source\PSoC6\pdl\drivers/peripheral/tcpwm/cy_tcpwm_counter.h **** * Returns compare value 0.
 316:Generated_Source\PSoC6\pdl\drivers/peripheral/tcpwm/cy_tcpwm_counter.h **** *
 317:Generated_Source\PSoC6\pdl\drivers/peripheral/tcpwm/cy_tcpwm_counter.h **** * \param base
 318:Generated_Source\PSoC6\pdl\drivers/peripheral/tcpwm/cy_tcpwm_counter.h **** * The pointer to a TCPWM instance.
 319:Generated_Source\PSoC6\pdl\drivers/peripheral/tcpwm/cy_tcpwm_counter.h **** *
 320:Generated_Source\PSoC6\pdl\drivers/peripheral/tcpwm/cy_tcpwm_counter.h **** * \param cntNum 
 321:Generated_Source\PSoC6\pdl\drivers/peripheral/tcpwm/cy_tcpwm_counter.h **** * The Counter instance number in the selected TCPWM.
 322:Generated_Source\PSoC6\pdl\drivers/peripheral/tcpwm/cy_tcpwm_counter.h **** *
 323:Generated_Source\PSoC6\pdl\drivers/peripheral/tcpwm/cy_tcpwm_counter.h **** * \return
 324:Generated_Source\PSoC6\pdl\drivers/peripheral/tcpwm/cy_tcpwm_counter.h **** * Compare value 0.
 325:Generated_Source\PSoC6\pdl\drivers/peripheral/tcpwm/cy_tcpwm_counter.h **** *
 326:Generated_Source\PSoC6\pdl\drivers/peripheral/tcpwm/cy_tcpwm_counter.h **** * \funcusage
 327:Generated_Source\PSoC6\pdl\drivers/peripheral/tcpwm/cy_tcpwm_counter.h **** * \snippet tcpwm/tcpwm_v1_0_counter_sut_01.cydsn/main_cm4.c snippet_Cy_TCPWM_Counter_SetCompare0
 328:Generated_Source\PSoC6\pdl\drivers/peripheral/tcpwm/cy_tcpwm_counter.h **** *
 329:Generated_Source\PSoC6\pdl\drivers/peripheral/tcpwm/cy_tcpwm_counter.h **** *******************************************************************************/
 330:Generated_Source\PSoC6\pdl\drivers/peripheral/tcpwm/cy_tcpwm_counter.h **** __STATIC_INLINE uint32_t Cy_TCPWM_Counter_GetCompare0(TCPWM_Type const  *base, uint32_t cntNum)
 331:Generated_Source\PSoC6\pdl\drivers/peripheral/tcpwm/cy_tcpwm_counter.h **** {
 332:Generated_Source\PSoC6\pdl\drivers/peripheral/tcpwm/cy_tcpwm_counter.h ****     return(base->CNT[cntNum].CC);
 333:Generated_Source\PSoC6\pdl\drivers/peripheral/tcpwm/cy_tcpwm_counter.h **** }
 334:Generated_Source\PSoC6\pdl\drivers/peripheral/tcpwm/cy_tcpwm_counter.h **** 
 335:Generated_Source\PSoC6\pdl\drivers/peripheral/tcpwm/cy_tcpwm_counter.h **** 
 336:Generated_Source\PSoC6\pdl\drivers/peripheral/tcpwm/cy_tcpwm_counter.h **** /*******************************************************************************
 337:Generated_Source\PSoC6\pdl\drivers/peripheral/tcpwm/cy_tcpwm_counter.h **** * Function Name: Cy_TCPWM_Counter_SetCompare1
 338:Generated_Source\PSoC6\pdl\drivers/peripheral/tcpwm/cy_tcpwm_counter.h **** ****************************************************************************//**
 339:Generated_Source\PSoC6\pdl\drivers/peripheral/tcpwm/cy_tcpwm_counter.h **** *
 340:Generated_Source\PSoC6\pdl\drivers/peripheral/tcpwm/cy_tcpwm_counter.h **** * Sets the compare value for Compare1 when the compare mode is enabled.
ARM GAS  C:\Users\PC\AppData\Local\Temp\ccXlt19g.s 			page 9


 341:Generated_Source\PSoC6\pdl\drivers/peripheral/tcpwm/cy_tcpwm_counter.h **** *
 342:Generated_Source\PSoC6\pdl\drivers/peripheral/tcpwm/cy_tcpwm_counter.h **** * \param base
 343:Generated_Source\PSoC6\pdl\drivers/peripheral/tcpwm/cy_tcpwm_counter.h **** * The pointer to a TCPWM instance.
 344:Generated_Source\PSoC6\pdl\drivers/peripheral/tcpwm/cy_tcpwm_counter.h **** *
 345:Generated_Source\PSoC6\pdl\drivers/peripheral/tcpwm/cy_tcpwm_counter.h **** * \param cntNum 
 346:Generated_Source\PSoC6\pdl\drivers/peripheral/tcpwm/cy_tcpwm_counter.h **** * The Counter instance number in the selected TCPWM.
 347:Generated_Source\PSoC6\pdl\drivers/peripheral/tcpwm/cy_tcpwm_counter.h **** *
 348:Generated_Source\PSoC6\pdl\drivers/peripheral/tcpwm/cy_tcpwm_counter.h **** * \param compare1
 349:Generated_Source\PSoC6\pdl\drivers/peripheral/tcpwm/cy_tcpwm_counter.h **** * The Compare1 value.
 350:Generated_Source\PSoC6\pdl\drivers/peripheral/tcpwm/cy_tcpwm_counter.h **** *
 351:Generated_Source\PSoC6\pdl\drivers/peripheral/tcpwm/cy_tcpwm_counter.h **** * \funcusage
 352:Generated_Source\PSoC6\pdl\drivers/peripheral/tcpwm/cy_tcpwm_counter.h **** * \snippet tcpwm/tcpwm_v1_0_counter_sut_01.cydsn/main_cm4.c snippet_Cy_TCPWM_Counter_SetCompare1
 353:Generated_Source\PSoC6\pdl\drivers/peripheral/tcpwm/cy_tcpwm_counter.h **** *
 354:Generated_Source\PSoC6\pdl\drivers/peripheral/tcpwm/cy_tcpwm_counter.h **** *******************************************************************************/
 355:Generated_Source\PSoC6\pdl\drivers/peripheral/tcpwm/cy_tcpwm_counter.h **** __STATIC_INLINE void Cy_TCPWM_Counter_SetCompare1(TCPWM_Type *base, uint32_t cntNum,  uint32_t comp
 356:Generated_Source\PSoC6\pdl\drivers/peripheral/tcpwm/cy_tcpwm_counter.h **** {
 357:Generated_Source\PSoC6\pdl\drivers/peripheral/tcpwm/cy_tcpwm_counter.h ****     base->CNT[cntNum].CC_BUFF = compare1;
 358:Generated_Source\PSoC6\pdl\drivers/peripheral/tcpwm/cy_tcpwm_counter.h **** }
 359:Generated_Source\PSoC6\pdl\drivers/peripheral/tcpwm/cy_tcpwm_counter.h **** 
 360:Generated_Source\PSoC6\pdl\drivers/peripheral/tcpwm/cy_tcpwm_counter.h **** 
 361:Generated_Source\PSoC6\pdl\drivers/peripheral/tcpwm/cy_tcpwm_counter.h **** /*******************************************************************************
 362:Generated_Source\PSoC6\pdl\drivers/peripheral/tcpwm/cy_tcpwm_counter.h **** * Function Name: Cy_TCPWM_Counter_GetCompare1
 363:Generated_Source\PSoC6\pdl\drivers/peripheral/tcpwm/cy_tcpwm_counter.h **** ****************************************************************************//**
 364:Generated_Source\PSoC6\pdl\drivers/peripheral/tcpwm/cy_tcpwm_counter.h **** *
 365:Generated_Source\PSoC6\pdl\drivers/peripheral/tcpwm/cy_tcpwm_counter.h **** * Returns compare value 1.
 366:Generated_Source\PSoC6\pdl\drivers/peripheral/tcpwm/cy_tcpwm_counter.h **** *
 367:Generated_Source\PSoC6\pdl\drivers/peripheral/tcpwm/cy_tcpwm_counter.h **** * \param base
 368:Generated_Source\PSoC6\pdl\drivers/peripheral/tcpwm/cy_tcpwm_counter.h **** * The pointer to a TCPWM instance.
 369:Generated_Source\PSoC6\pdl\drivers/peripheral/tcpwm/cy_tcpwm_counter.h **** *
 370:Generated_Source\PSoC6\pdl\drivers/peripheral/tcpwm/cy_tcpwm_counter.h **** * \param cntNum 
 371:Generated_Source\PSoC6\pdl\drivers/peripheral/tcpwm/cy_tcpwm_counter.h **** * The Counter instance number in the selected TCPWM.
 372:Generated_Source\PSoC6\pdl\drivers/peripheral/tcpwm/cy_tcpwm_counter.h **** *
 373:Generated_Source\PSoC6\pdl\drivers/peripheral/tcpwm/cy_tcpwm_counter.h **** * \return
 374:Generated_Source\PSoC6\pdl\drivers/peripheral/tcpwm/cy_tcpwm_counter.h **** * Compare value 1.
 375:Generated_Source\PSoC6\pdl\drivers/peripheral/tcpwm/cy_tcpwm_counter.h **** *
 376:Generated_Source\PSoC6\pdl\drivers/peripheral/tcpwm/cy_tcpwm_counter.h **** * \funcusage
 377:Generated_Source\PSoC6\pdl\drivers/peripheral/tcpwm/cy_tcpwm_counter.h **** * \snippet tcpwm/tcpwm_v1_0_counter_sut_01.cydsn/main_cm4.c snippet_Cy_TCPWM_Counter_SetCompare1
 378:Generated_Source\PSoC6\pdl\drivers/peripheral/tcpwm/cy_tcpwm_counter.h **** *
 379:Generated_Source\PSoC6\pdl\drivers/peripheral/tcpwm/cy_tcpwm_counter.h **** *******************************************************************************/
 380:Generated_Source\PSoC6\pdl\drivers/peripheral/tcpwm/cy_tcpwm_counter.h **** __STATIC_INLINE uint32_t Cy_TCPWM_Counter_GetCompare1(TCPWM_Type const  *base, uint32_t cntNum)
 381:Generated_Source\PSoC6\pdl\drivers/peripheral/tcpwm/cy_tcpwm_counter.h **** {
 382:Generated_Source\PSoC6\pdl\drivers/peripheral/tcpwm/cy_tcpwm_counter.h ****     return(base->CNT[cntNum].CC_BUFF);
 383:Generated_Source\PSoC6\pdl\drivers/peripheral/tcpwm/cy_tcpwm_counter.h **** }
 384:Generated_Source\PSoC6\pdl\drivers/peripheral/tcpwm/cy_tcpwm_counter.h **** 
 385:Generated_Source\PSoC6\pdl\drivers/peripheral/tcpwm/cy_tcpwm_counter.h **** 
 386:Generated_Source\PSoC6\pdl\drivers/peripheral/tcpwm/cy_tcpwm_counter.h **** /*******************************************************************************
 387:Generated_Source\PSoC6\pdl\drivers/peripheral/tcpwm/cy_tcpwm_counter.h **** * Function Name: Cy_TCPWM_Counter_EnableCompareSwap
 388:Generated_Source\PSoC6\pdl\drivers/peripheral/tcpwm/cy_tcpwm_counter.h **** ****************************************************************************//**
 389:Generated_Source\PSoC6\pdl\drivers/peripheral/tcpwm/cy_tcpwm_counter.h **** *
 390:Generated_Source\PSoC6\pdl\drivers/peripheral/tcpwm/cy_tcpwm_counter.h **** * Enables the comparison swap when the comparison value is true.
 391:Generated_Source\PSoC6\pdl\drivers/peripheral/tcpwm/cy_tcpwm_counter.h **** *
 392:Generated_Source\PSoC6\pdl\drivers/peripheral/tcpwm/cy_tcpwm_counter.h **** * \param base
 393:Generated_Source\PSoC6\pdl\drivers/peripheral/tcpwm/cy_tcpwm_counter.h **** * The pointer to a TCPWM instance.
 394:Generated_Source\PSoC6\pdl\drivers/peripheral/tcpwm/cy_tcpwm_counter.h **** *
 395:Generated_Source\PSoC6\pdl\drivers/peripheral/tcpwm/cy_tcpwm_counter.h **** * \param cntNum 
 396:Generated_Source\PSoC6\pdl\drivers/peripheral/tcpwm/cy_tcpwm_counter.h **** * The Counter instance number in the selected TCPWM.
 397:Generated_Source\PSoC6\pdl\drivers/peripheral/tcpwm/cy_tcpwm_counter.h **** *
ARM GAS  C:\Users\PC\AppData\Local\Temp\ccXlt19g.s 			page 10


 398:Generated_Source\PSoC6\pdl\drivers/peripheral/tcpwm/cy_tcpwm_counter.h **** * \param enable
 399:Generated_Source\PSoC6\pdl\drivers/peripheral/tcpwm/cy_tcpwm_counter.h **** * true = swap enabled, false = swap disabled
 400:Generated_Source\PSoC6\pdl\drivers/peripheral/tcpwm/cy_tcpwm_counter.h **** *
 401:Generated_Source\PSoC6\pdl\drivers/peripheral/tcpwm/cy_tcpwm_counter.h **** * \funcusage
 402:Generated_Source\PSoC6\pdl\drivers/peripheral/tcpwm/cy_tcpwm_counter.h **** * \snippet tcpwm/tcpwm_v1_0_counter_sut_01.cydsn/main_cm4.c snippet_Cy_TCPWM_Counter_EnableCompareS
 403:Generated_Source\PSoC6\pdl\drivers/peripheral/tcpwm/cy_tcpwm_counter.h **** *
 404:Generated_Source\PSoC6\pdl\drivers/peripheral/tcpwm/cy_tcpwm_counter.h **** *******************************************************************************/
 405:Generated_Source\PSoC6\pdl\drivers/peripheral/tcpwm/cy_tcpwm_counter.h **** __STATIC_INLINE void Cy_TCPWM_Counter_EnableCompareSwap(TCPWM_Type *base, uint32_t cntNum,  bool en
 406:Generated_Source\PSoC6\pdl\drivers/peripheral/tcpwm/cy_tcpwm_counter.h **** {
 407:Generated_Source\PSoC6\pdl\drivers/peripheral/tcpwm/cy_tcpwm_counter.h ****     if (enable)
 408:Generated_Source\PSoC6\pdl\drivers/peripheral/tcpwm/cy_tcpwm_counter.h ****     {
 409:Generated_Source\PSoC6\pdl\drivers/peripheral/tcpwm/cy_tcpwm_counter.h ****         base->CNT[cntNum].CTRL |=  TCPWM_CNT_CTRL_AUTO_RELOAD_CC_Msk;
 410:Generated_Source\PSoC6\pdl\drivers/peripheral/tcpwm/cy_tcpwm_counter.h ****     }
 411:Generated_Source\PSoC6\pdl\drivers/peripheral/tcpwm/cy_tcpwm_counter.h ****     else
 412:Generated_Source\PSoC6\pdl\drivers/peripheral/tcpwm/cy_tcpwm_counter.h ****     {
 413:Generated_Source\PSoC6\pdl\drivers/peripheral/tcpwm/cy_tcpwm_counter.h ****         base->CNT[cntNum].CTRL &= ~TCPWM_CNT_CTRL_AUTO_RELOAD_CC_Msk;
 414:Generated_Source\PSoC6\pdl\drivers/peripheral/tcpwm/cy_tcpwm_counter.h ****     }
 415:Generated_Source\PSoC6\pdl\drivers/peripheral/tcpwm/cy_tcpwm_counter.h **** }
 416:Generated_Source\PSoC6\pdl\drivers/peripheral/tcpwm/cy_tcpwm_counter.h **** 
 417:Generated_Source\PSoC6\pdl\drivers/peripheral/tcpwm/cy_tcpwm_counter.h **** 
 418:Generated_Source\PSoC6\pdl\drivers/peripheral/tcpwm/cy_tcpwm_counter.h **** /*******************************************************************************
 419:Generated_Source\PSoC6\pdl\drivers/peripheral/tcpwm/cy_tcpwm_counter.h **** * Function Name: Cy_TCPWM_Counter_SetCounter
 420:Generated_Source\PSoC6\pdl\drivers/peripheral/tcpwm/cy_tcpwm_counter.h **** ****************************************************************************//**
 421:Generated_Source\PSoC6\pdl\drivers/peripheral/tcpwm/cy_tcpwm_counter.h **** *
 422:Generated_Source\PSoC6\pdl\drivers/peripheral/tcpwm/cy_tcpwm_counter.h **** * Sets the value of the counter.
 423:Generated_Source\PSoC6\pdl\drivers/peripheral/tcpwm/cy_tcpwm_counter.h **** *
 424:Generated_Source\PSoC6\pdl\drivers/peripheral/tcpwm/cy_tcpwm_counter.h **** * \param base
 425:Generated_Source\PSoC6\pdl\drivers/peripheral/tcpwm/cy_tcpwm_counter.h **** * The pointer to a TCPWM instance.
 426:Generated_Source\PSoC6\pdl\drivers/peripheral/tcpwm/cy_tcpwm_counter.h **** *
 427:Generated_Source\PSoC6\pdl\drivers/peripheral/tcpwm/cy_tcpwm_counter.h **** * \param cntNum 
 428:Generated_Source\PSoC6\pdl\drivers/peripheral/tcpwm/cy_tcpwm_counter.h **** * The Counter instance number in the selected TCPWM.
 429:Generated_Source\PSoC6\pdl\drivers/peripheral/tcpwm/cy_tcpwm_counter.h **** *
 430:Generated_Source\PSoC6\pdl\drivers/peripheral/tcpwm/cy_tcpwm_counter.h **** * \param count
 431:Generated_Source\PSoC6\pdl\drivers/peripheral/tcpwm/cy_tcpwm_counter.h **** * The value to write into the counter.
 432:Generated_Source\PSoC6\pdl\drivers/peripheral/tcpwm/cy_tcpwm_counter.h **** *
 433:Generated_Source\PSoC6\pdl\drivers/peripheral/tcpwm/cy_tcpwm_counter.h **** * \funcusage
 434:Generated_Source\PSoC6\pdl\drivers/peripheral/tcpwm/cy_tcpwm_counter.h **** * \snippet tcpwm/tcpwm_v1_0_counter_sut_01.cydsn/main_cm4.c snippet_Cy_TCPWM_Counter_SetCounter
 435:Generated_Source\PSoC6\pdl\drivers/peripheral/tcpwm/cy_tcpwm_counter.h **** *
 436:Generated_Source\PSoC6\pdl\drivers/peripheral/tcpwm/cy_tcpwm_counter.h **** *******************************************************************************/
 437:Generated_Source\PSoC6\pdl\drivers/peripheral/tcpwm/cy_tcpwm_counter.h **** __STATIC_INLINE void Cy_TCPWM_Counter_SetCounter(TCPWM_Type *base, uint32_t cntNum, uint32_t count)
 438:Generated_Source\PSoC6\pdl\drivers/peripheral/tcpwm/cy_tcpwm_counter.h **** {
 439:Generated_Source\PSoC6\pdl\drivers/peripheral/tcpwm/cy_tcpwm_counter.h ****     base->CNT[cntNum].COUNTER = count;
  42              		.loc 2 439 0
  43 0002 0022     		movs	r2, #0
  44 0004 024B     		ldr	r3, .L3
  45 0006 C3F80821 		str	r2, [r3, #264]
  46              	.LVL1:
  47              	.LBE106:
  48              	.LBE105:
  49              	.LBE104:
  76:eInk Library/cy_eink_psoc_interface.c ****     /* Clear the counter value and the counter variable */
  77:eInk Library/cy_eink_psoc_interface.c ****     CY_EINK_Timer_SetCounter(0);  
  78:eInk Library/cy_eink_psoc_interface.c ****     
  79:eInk Library/cy_eink_psoc_interface.c ****     /* Initialize the Timer */
  80:eInk Library/cy_eink_psoc_interface.c ****     CY_EINK_Timer_Start();
  50              		.loc 1 80 0
  51 000a FFF7FEFF 		bl	CY_EINK_Timer_Start
ARM GAS  C:\Users\PC\AppData\Local\Temp\ccXlt19g.s 			page 11


  52              	.LVL2:
  53 000e 08BD     		pop	{r3, pc}
  54              	.L4:
  55              		.align	2
  56              	.L3:
  57 0010 00003840 		.word	1077411840
  58              		.cfi_endproc
  59              	.LFE548:
  60              		.size	Cy_EINK_TimerInit, .-Cy_EINK_TimerInit
  61              		.section	.text.Cy_EINK_GetTimeTick,"ax",%progbits
  62              		.align	2
  63              		.global	Cy_EINK_GetTimeTick
  64              		.thumb
  65              		.thumb_func
  66              		.type	Cy_EINK_GetTimeTick, %function
  67              	Cy_EINK_GetTimeTick:
  68              	.LFB549:
  81:eInk Library/cy_eink_psoc_interface.c **** }
  82:eInk Library/cy_eink_psoc_interface.c **** 
  83:eInk Library/cy_eink_psoc_interface.c **** /*******************************************************************************
  84:eInk Library/cy_eink_psoc_interface.c **** * Function Name: uint32_t Cy_EINK_GetTimeTick(void)
  85:eInk Library/cy_eink_psoc_interface.c **** ********************************************************************************
  86:eInk Library/cy_eink_psoc_interface.c **** *
  87:eInk Library/cy_eink_psoc_interface.c **** * Summary:
  88:eInk Library/cy_eink_psoc_interface.c **** *  This function returns the value of current time tick of E-INK Timer.
  89:eInk Library/cy_eink_psoc_interface.c **** *
  90:eInk Library/cy_eink_psoc_interface.c **** * Parameters:
  91:eInk Library/cy_eink_psoc_interface.c **** *  None
  92:eInk Library/cy_eink_psoc_interface.c **** *
  93:eInk Library/cy_eink_psoc_interface.c **** * Return:
  94:eInk Library/cy_eink_psoc_interface.c **** *  uint32_t : current value of time tick
  95:eInk Library/cy_eink_psoc_interface.c **** *
  96:eInk Library/cy_eink_psoc_interface.c **** * Side Effects:
  97:eInk Library/cy_eink_psoc_interface.c **** *  None
  98:eInk Library/cy_eink_psoc_interface.c **** *******************************************************************************/
  99:eInk Library/cy_eink_psoc_interface.c **** uint32_t Cy_EINK_GetTimeTick(void)
 100:eInk Library/cy_eink_psoc_interface.c **** {
  69              		.loc 1 100 0
  70              		.cfi_startproc
  71              		@ args = 0, pretend = 0, frame = 0
  72              		@ frame_needed = 0, uses_anonymous_args = 0
  73              		@ link register save eliminated.
  74              	.LVL3:
  75              	.LBB107:
  76              	.LBB108:
  77              	.LBB109:
 440:Generated_Source\PSoC6\pdl\drivers/peripheral/tcpwm/cy_tcpwm_counter.h **** }
 441:Generated_Source\PSoC6\pdl\drivers/peripheral/tcpwm/cy_tcpwm_counter.h **** 
 442:Generated_Source\PSoC6\pdl\drivers/peripheral/tcpwm/cy_tcpwm_counter.h **** 
 443:Generated_Source\PSoC6\pdl\drivers/peripheral/tcpwm/cy_tcpwm_counter.h **** /*******************************************************************************
 444:Generated_Source\PSoC6\pdl\drivers/peripheral/tcpwm/cy_tcpwm_counter.h **** * Function Name: Cy_TCPWM_Counter_GetCounter
 445:Generated_Source\PSoC6\pdl\drivers/peripheral/tcpwm/cy_tcpwm_counter.h **** ****************************************************************************//**
 446:Generated_Source\PSoC6\pdl\drivers/peripheral/tcpwm/cy_tcpwm_counter.h **** *
 447:Generated_Source\PSoC6\pdl\drivers/peripheral/tcpwm/cy_tcpwm_counter.h **** * Returns the value in the counter.
 448:Generated_Source\PSoC6\pdl\drivers/peripheral/tcpwm/cy_tcpwm_counter.h **** *
 449:Generated_Source\PSoC6\pdl\drivers/peripheral/tcpwm/cy_tcpwm_counter.h **** * \param base
 450:Generated_Source\PSoC6\pdl\drivers/peripheral/tcpwm/cy_tcpwm_counter.h **** * The pointer to a TCPWM instance.
ARM GAS  C:\Users\PC\AppData\Local\Temp\ccXlt19g.s 			page 12


 451:Generated_Source\PSoC6\pdl\drivers/peripheral/tcpwm/cy_tcpwm_counter.h **** *
 452:Generated_Source\PSoC6\pdl\drivers/peripheral/tcpwm/cy_tcpwm_counter.h **** * \param cntNum 
 453:Generated_Source\PSoC6\pdl\drivers/peripheral/tcpwm/cy_tcpwm_counter.h **** * The Counter instance number in the selected TCPWM.
 454:Generated_Source\PSoC6\pdl\drivers/peripheral/tcpwm/cy_tcpwm_counter.h **** *
 455:Generated_Source\PSoC6\pdl\drivers/peripheral/tcpwm/cy_tcpwm_counter.h **** * \return
 456:Generated_Source\PSoC6\pdl\drivers/peripheral/tcpwm/cy_tcpwm_counter.h **** * The current counter value.
 457:Generated_Source\PSoC6\pdl\drivers/peripheral/tcpwm/cy_tcpwm_counter.h **** *
 458:Generated_Source\PSoC6\pdl\drivers/peripheral/tcpwm/cy_tcpwm_counter.h **** * \funcusage
 459:Generated_Source\PSoC6\pdl\drivers/peripheral/tcpwm/cy_tcpwm_counter.h **** * \snippet tcpwm/tcpwm_v1_0_counter_sut_01.cydsn/main_cm4.c snippet_Cy_TCPWM_Counter_GetCounter
 460:Generated_Source\PSoC6\pdl\drivers/peripheral/tcpwm/cy_tcpwm_counter.h **** *
 461:Generated_Source\PSoC6\pdl\drivers/peripheral/tcpwm/cy_tcpwm_counter.h **** *******************************************************************************/
 462:Generated_Source\PSoC6\pdl\drivers/peripheral/tcpwm/cy_tcpwm_counter.h **** __STATIC_INLINE uint32_t Cy_TCPWM_Counter_GetCounter(TCPWM_Type const  *base, uint32_t cntNum)
 463:Generated_Source\PSoC6\pdl\drivers/peripheral/tcpwm/cy_tcpwm_counter.h **** {
 464:Generated_Source\PSoC6\pdl\drivers/peripheral/tcpwm/cy_tcpwm_counter.h ****     return(base->CNT[cntNum].COUNTER);
  78              		.loc 2 464 0
  79 0000 014B     		ldr	r3, .L6
  80 0002 D3F80801 		ldr	r0, [r3, #264]
  81              	.LVL4:
  82              	.LBE109:
  83              	.LBE108:
  84              	.LBE107:
 101:eInk Library/cy_eink_psoc_interface.c ****     /* Variable used to store the time tick */
 102:eInk Library/cy_eink_psoc_interface.c ****     uint32_t timingCount;
 103:eInk Library/cy_eink_psoc_interface.c ****     
 104:eInk Library/cy_eink_psoc_interface.c ****     /* Read the current time tick from the E-INK Timer */
 105:eInk Library/cy_eink_psoc_interface.c ****     timingCount = CY_EINK_Timer_GetCounter();
 106:eInk Library/cy_eink_psoc_interface.c **** 
 107:eInk Library/cy_eink_psoc_interface.c ****     /* Return the current value of time tick */
 108:eInk Library/cy_eink_psoc_interface.c ****     return(timingCount);
 109:eInk Library/cy_eink_psoc_interface.c **** }
  85              		.loc 1 109 0
  86 0006 7047     		bx	lr
  87              	.L7:
  88              		.align	2
  89              	.L6:
  90 0008 00003840 		.word	1077411840
  91              		.cfi_endproc
  92              	.LFE549:
  93              		.size	Cy_EINK_GetTimeTick, .-Cy_EINK_GetTimeTick
  94              		.section	.text.Cy_EINK_TimerStop,"ax",%progbits
  95              		.align	2
  96              		.global	Cy_EINK_TimerStop
  97              		.thumb
  98              		.thumb_func
  99              		.type	Cy_EINK_TimerStop, %function
 100              	Cy_EINK_TimerStop:
 101              	.LFB550:
 110:eInk Library/cy_eink_psoc_interface.c **** 
 111:eInk Library/cy_eink_psoc_interface.c **** /*******************************************************************************
 112:eInk Library/cy_eink_psoc_interface.c **** * Function Name: void Cy_EINK_TimerStop(void)
 113:eInk Library/cy_eink_psoc_interface.c **** ********************************************************************************
 114:eInk Library/cy_eink_psoc_interface.c **** *
 115:eInk Library/cy_eink_psoc_interface.c **** * Summary:
 116:eInk Library/cy_eink_psoc_interface.c **** *  Stops the E-INK Timer.
 117:eInk Library/cy_eink_psoc_interface.c **** *
 118:eInk Library/cy_eink_psoc_interface.c **** * Parameters:
 119:eInk Library/cy_eink_psoc_interface.c **** *  None
ARM GAS  C:\Users\PC\AppData\Local\Temp\ccXlt19g.s 			page 13


 120:eInk Library/cy_eink_psoc_interface.c **** *
 121:eInk Library/cy_eink_psoc_interface.c **** * Return:
 122:eInk Library/cy_eink_psoc_interface.c **** *  None
 123:eInk Library/cy_eink_psoc_interface.c **** *
 124:eInk Library/cy_eink_psoc_interface.c **** * Side Effects:
 125:eInk Library/cy_eink_psoc_interface.c **** *  None
 126:eInk Library/cy_eink_psoc_interface.c **** *******************************************************************************/
 127:eInk Library/cy_eink_psoc_interface.c **** void Cy_EINK_TimerStop(void)
 128:eInk Library/cy_eink_psoc_interface.c **** {
 102              		.loc 1 128 0
 103              		.cfi_startproc
 104              		@ args = 0, pretend = 0, frame = 0
 105              		@ frame_needed = 0, uses_anonymous_args = 0
 106              		@ link register save eliminated.
 107              	.LVL5:
 108              	.LBB110:
 109              	.LBB111:
 110              	.LBB112:
 111              		.file 3 "Generated_Source\\PSoC6\\pdl\\drivers/peripheral/tcpwm/cy_tcpwm.h"
   1:Generated_Source\PSoC6\pdl\drivers/peripheral/tcpwm/cy_tcpwm.h **** /***************************************************************************//**
   2:Generated_Source\PSoC6\pdl\drivers/peripheral/tcpwm/cy_tcpwm.h **** * \file cy_tcpwm.h
   3:Generated_Source\PSoC6\pdl\drivers/peripheral/tcpwm/cy_tcpwm.h **** * \version 1.0.1
   4:Generated_Source\PSoC6\pdl\drivers/peripheral/tcpwm/cy_tcpwm.h **** *
   5:Generated_Source\PSoC6\pdl\drivers/peripheral/tcpwm/cy_tcpwm.h **** * The header file of the TCPWM driver.
   6:Generated_Source\PSoC6\pdl\drivers/peripheral/tcpwm/cy_tcpwm.h **** *
   7:Generated_Source\PSoC6\pdl\drivers/peripheral/tcpwm/cy_tcpwm.h **** ********************************************************************************
   8:Generated_Source\PSoC6\pdl\drivers/peripheral/tcpwm/cy_tcpwm.h **** * \copyright
   9:Generated_Source\PSoC6\pdl\drivers/peripheral/tcpwm/cy_tcpwm.h **** * Copyright 2016-2018, Cypress Semiconductor Corporation. All rights reserved.
  10:Generated_Source\PSoC6\pdl\drivers/peripheral/tcpwm/cy_tcpwm.h **** * You may use this file only in accordance with the license, terms, conditions,
  11:Generated_Source\PSoC6\pdl\drivers/peripheral/tcpwm/cy_tcpwm.h **** * disclaimers, and limitations in the end user license agreement accompanying
  12:Generated_Source\PSoC6\pdl\drivers/peripheral/tcpwm/cy_tcpwm.h **** * the software package with which this file was provided.
  13:Generated_Source\PSoC6\pdl\drivers/peripheral/tcpwm/cy_tcpwm.h **** *******************************************************************************/
  14:Generated_Source\PSoC6\pdl\drivers/peripheral/tcpwm/cy_tcpwm.h **** 
  15:Generated_Source\PSoC6\pdl\drivers/peripheral/tcpwm/cy_tcpwm.h **** /**
  16:Generated_Source\PSoC6\pdl\drivers/peripheral/tcpwm/cy_tcpwm.h **** * \defgroup group_tcpwm Timer Counter PWM (TCPWM)
  17:Generated_Source\PSoC6\pdl\drivers/peripheral/tcpwm/cy_tcpwm.h **** * \{
  18:Generated_Source\PSoC6\pdl\drivers/peripheral/tcpwm/cy_tcpwm.h **** * \defgroup group_tcpwm_common  Common
  19:Generated_Source\PSoC6\pdl\drivers/peripheral/tcpwm/cy_tcpwm.h **** * \defgroup group_tcpwm_counter Timer/Counter (TCPWM)
  20:Generated_Source\PSoC6\pdl\drivers/peripheral/tcpwm/cy_tcpwm.h **** * \defgroup group_tcpwm_pwm     PWM (TCPWM)
  21:Generated_Source\PSoC6\pdl\drivers/peripheral/tcpwm/cy_tcpwm.h **** * \defgroup group_tcpwm_quaddec Quadrature Decoder (TCPWM)
  22:Generated_Source\PSoC6\pdl\drivers/peripheral/tcpwm/cy_tcpwm.h **** * \} */
  23:Generated_Source\PSoC6\pdl\drivers/peripheral/tcpwm/cy_tcpwm.h **** 
  24:Generated_Source\PSoC6\pdl\drivers/peripheral/tcpwm/cy_tcpwm.h **** /**
  25:Generated_Source\PSoC6\pdl\drivers/peripheral/tcpwm/cy_tcpwm.h **** * \addtogroup group_tcpwm
  26:Generated_Source\PSoC6\pdl\drivers/peripheral/tcpwm/cy_tcpwm.h **** * \{
  27:Generated_Source\PSoC6\pdl\drivers/peripheral/tcpwm/cy_tcpwm.h **** * 
  28:Generated_Source\PSoC6\pdl\drivers/peripheral/tcpwm/cy_tcpwm.h **** * The TCPWM driver is a multifunction driver that implements Timer Counter, 
  29:Generated_Source\PSoC6\pdl\drivers/peripheral/tcpwm/cy_tcpwm.h **** * PWM, and Quadrature Decoder functionality using the TCPWM block.
  30:Generated_Source\PSoC6\pdl\drivers/peripheral/tcpwm/cy_tcpwm.h **** *
  31:Generated_Source\PSoC6\pdl\drivers/peripheral/tcpwm/cy_tcpwm.h **** * Each TCPWM block is a collection of counters that can all be triggered 
  32:Generated_Source\PSoC6\pdl\drivers/peripheral/tcpwm/cy_tcpwm.h **** * simultaneously. For each function call, the base register address of 
  33:Generated_Source\PSoC6\pdl\drivers/peripheral/tcpwm/cy_tcpwm.h **** * the TCPWM being used must be passed first, followed by the index of 
  34:Generated_Source\PSoC6\pdl\drivers/peripheral/tcpwm/cy_tcpwm.h **** * the counter you want to touch next. 
  35:Generated_Source\PSoC6\pdl\drivers/peripheral/tcpwm/cy_tcpwm.h **** * For some functions, you can manage multiple counters simultaneously. You 
  36:Generated_Source\PSoC6\pdl\drivers/peripheral/tcpwm/cy_tcpwm.h **** * provide a bit field representing each counter, rather than the single counter 
  37:Generated_Source\PSoC6\pdl\drivers/peripheral/tcpwm/cy_tcpwm.h **** * index). 
  38:Generated_Source\PSoC6\pdl\drivers/peripheral/tcpwm/cy_tcpwm.h **** *
ARM GAS  C:\Users\PC\AppData\Local\Temp\ccXlt19g.s 			page 14


  39:Generated_Source\PSoC6\pdl\drivers/peripheral/tcpwm/cy_tcpwm.h **** * The TCPWM supports three operating modes:
  40:Generated_Source\PSoC6\pdl\drivers/peripheral/tcpwm/cy_tcpwm.h **** * * Timer/Counter
  41:Generated_Source\PSoC6\pdl\drivers/peripheral/tcpwm/cy_tcpwm.h **** * * PWM
  42:Generated_Source\PSoC6\pdl\drivers/peripheral/tcpwm/cy_tcpwm.h **** * * Quadrature Decoder
  43:Generated_Source\PSoC6\pdl\drivers/peripheral/tcpwm/cy_tcpwm.h **** *
  44:Generated_Source\PSoC6\pdl\drivers/peripheral/tcpwm/cy_tcpwm.h **** * \n
  45:Generated_Source\PSoC6\pdl\drivers/peripheral/tcpwm/cy_tcpwm.h **** * \b Timer/Counter
  46:Generated_Source\PSoC6\pdl\drivers/peripheral/tcpwm/cy_tcpwm.h **** *
  47:Generated_Source\PSoC6\pdl\drivers/peripheral/tcpwm/cy_tcpwm.h **** * Use this mode whenever a specific timing interval or measurement is 
  48:Generated_Source\PSoC6\pdl\drivers/peripheral/tcpwm/cy_tcpwm.h **** * needed. Examples include:
  49:Generated_Source\PSoC6\pdl\drivers/peripheral/tcpwm/cy_tcpwm.h **** * * Creating a periodic interrupt for running other system tasks
  50:Generated_Source\PSoC6\pdl\drivers/peripheral/tcpwm/cy_tcpwm.h **** * * Measuring frequency of an input signal
  51:Generated_Source\PSoC6\pdl\drivers/peripheral/tcpwm/cy_tcpwm.h **** * * Measuring pulse width of an input signal
  52:Generated_Source\PSoC6\pdl\drivers/peripheral/tcpwm/cy_tcpwm.h **** * * Measuring time between two external events
  53:Generated_Source\PSoC6\pdl\drivers/peripheral/tcpwm/cy_tcpwm.h **** * * Counting events
  54:Generated_Source\PSoC6\pdl\drivers/peripheral/tcpwm/cy_tcpwm.h **** * * Triggering other system resources after x number events
  55:Generated_Source\PSoC6\pdl\drivers/peripheral/tcpwm/cy_tcpwm.h **** * * Capturing time stamps when events occur
  56:Generated_Source\PSoC6\pdl\drivers/peripheral/tcpwm/cy_tcpwm.h **** *
  57:Generated_Source\PSoC6\pdl\drivers/peripheral/tcpwm/cy_tcpwm.h **** * The Timer/Counter has the following features:
  58:Generated_Source\PSoC6\pdl\drivers/peripheral/tcpwm/cy_tcpwm.h **** * * 16- or 32-bit Timer/Counter
  59:Generated_Source\PSoC6\pdl\drivers/peripheral/tcpwm/cy_tcpwm.h **** * * Programmable Period Register
  60:Generated_Source\PSoC6\pdl\drivers/peripheral/tcpwm/cy_tcpwm.h **** * * Programmable Compare Register. Compare value can be swapped with a 
  61:Generated_Source\PSoC6\pdl\drivers/peripheral/tcpwm/cy_tcpwm.h **** * buffered compare value on comparison event
  62:Generated_Source\PSoC6\pdl\drivers/peripheral/tcpwm/cy_tcpwm.h **** * * Capture with buffer register
  63:Generated_Source\PSoC6\pdl\drivers/peripheral/tcpwm/cy_tcpwm.h **** * * Count Up, Count Down, or Count Up and Down Counting modes
  64:Generated_Source\PSoC6\pdl\drivers/peripheral/tcpwm/cy_tcpwm.h **** * * Continuous or One Shot Run modes
  65:Generated_Source\PSoC6\pdl\drivers/peripheral/tcpwm/cy_tcpwm.h **** * * Interrupt and Output on Overflow, Underflow, Capture, or Compare 
  66:Generated_Source\PSoC6\pdl\drivers/peripheral/tcpwm/cy_tcpwm.h **** * * Start, Reload, Stop, Capture, and Count Inputs
  67:Generated_Source\PSoC6\pdl\drivers/peripheral/tcpwm/cy_tcpwm.h **** *
  68:Generated_Source\PSoC6\pdl\drivers/peripheral/tcpwm/cy_tcpwm.h **** * \n
  69:Generated_Source\PSoC6\pdl\drivers/peripheral/tcpwm/cy_tcpwm.h **** * \b PWM
  70:Generated_Source\PSoC6\pdl\drivers/peripheral/tcpwm/cy_tcpwm.h **** *
  71:Generated_Source\PSoC6\pdl\drivers/peripheral/tcpwm/cy_tcpwm.h **** * Use this mode when an output square wave is needed with a specific 
  72:Generated_Source\PSoC6\pdl\drivers/peripheral/tcpwm/cy_tcpwm.h **** * period and duty cycle, such as:
  73:Generated_Source\PSoC6\pdl\drivers/peripheral/tcpwm/cy_tcpwm.h **** * * Creating arbitrary square wave outputs
  74:Generated_Source\PSoC6\pdl\drivers/peripheral/tcpwm/cy_tcpwm.h **** * * Driving an LED (changing the brightness)
  75:Generated_Source\PSoC6\pdl\drivers/peripheral/tcpwm/cy_tcpwm.h **** * * Driving Motors (dead time assertion available)
  76:Generated_Source\PSoC6\pdl\drivers/peripheral/tcpwm/cy_tcpwm.h **** *
  77:Generated_Source\PSoC6\pdl\drivers/peripheral/tcpwm/cy_tcpwm.h **** * The PWM has the following features:
  78:Generated_Source\PSoC6\pdl\drivers/peripheral/tcpwm/cy_tcpwm.h **** * * 16- or 32-bit Counter
  79:Generated_Source\PSoC6\pdl\drivers/peripheral/tcpwm/cy_tcpwm.h **** * * Two Programmable Period registers that can be swapped
  80:Generated_Source\PSoC6\pdl\drivers/peripheral/tcpwm/cy_tcpwm.h **** * * Two Output Compare registers that can be swapped on overflow and/or 
  81:Generated_Source\PSoC6\pdl\drivers/peripheral/tcpwm/cy_tcpwm.h **** * underflow
  82:Generated_Source\PSoC6\pdl\drivers/peripheral/tcpwm/cy_tcpwm.h **** * * Left Aligned, Right Aligned, Center Aligned, and Asymmetric Aligned modes
  83:Generated_Source\PSoC6\pdl\drivers/peripheral/tcpwm/cy_tcpwm.h **** * * Continuous or One Shot run modes
  84:Generated_Source\PSoC6\pdl\drivers/peripheral/tcpwm/cy_tcpwm.h **** * * Pseudo Random mode
  85:Generated_Source\PSoC6\pdl\drivers/peripheral/tcpwm/cy_tcpwm.h **** * * Two PWM outputs with Dead Time insertion, and programmable polarity
  86:Generated_Source\PSoC6\pdl\drivers/peripheral/tcpwm/cy_tcpwm.h **** * * Interrupt and Output on Overflow, Underflow, or Compare 
  87:Generated_Source\PSoC6\pdl\drivers/peripheral/tcpwm/cy_tcpwm.h **** * * Start, Reload, Stop, Swap (Capture), and Count Inputs
  88:Generated_Source\PSoC6\pdl\drivers/peripheral/tcpwm/cy_tcpwm.h **** * * Multiple Components can be synchronized together for applications 
  89:Generated_Source\PSoC6\pdl\drivers/peripheral/tcpwm/cy_tcpwm.h **** * such as three phase motor control
  90:Generated_Source\PSoC6\pdl\drivers/peripheral/tcpwm/cy_tcpwm.h **** *
  91:Generated_Source\PSoC6\pdl\drivers/peripheral/tcpwm/cy_tcpwm.h **** * \n
  92:Generated_Source\PSoC6\pdl\drivers/peripheral/tcpwm/cy_tcpwm.h **** * \b Quadrature \b Decoder
  93:Generated_Source\PSoC6\pdl\drivers/peripheral/tcpwm/cy_tcpwm.h **** *
  94:Generated_Source\PSoC6\pdl\drivers/peripheral/tcpwm/cy_tcpwm.h **** * A quadrature decoder is used to decode the output of a quadrature encoder. 
  95:Generated_Source\PSoC6\pdl\drivers/peripheral/tcpwm/cy_tcpwm.h **** * A quadrature encoder senses the position, velocity, and direction of 
ARM GAS  C:\Users\PC\AppData\Local\Temp\ccXlt19g.s 			page 15


  96:Generated_Source\PSoC6\pdl\drivers/peripheral/tcpwm/cy_tcpwm.h **** * an object (for example a rotating axle, or a spinning mouse ball). 
  97:Generated_Source\PSoC6\pdl\drivers/peripheral/tcpwm/cy_tcpwm.h **** * A quadrature decoder can also be used for precision measurement of speed, 
  98:Generated_Source\PSoC6\pdl\drivers/peripheral/tcpwm/cy_tcpwm.h **** * acceleration, and position of a motor's rotor, or with a rotary switch to 
  99:Generated_Source\PSoC6\pdl\drivers/peripheral/tcpwm/cy_tcpwm.h **** * determine user input. \n
 100:Generated_Source\PSoC6\pdl\drivers/peripheral/tcpwm/cy_tcpwm.h **** * 
 101:Generated_Source\PSoC6\pdl\drivers/peripheral/tcpwm/cy_tcpwm.h **** * The Quadrature Decoder has the following features:
 102:Generated_Source\PSoC6\pdl\drivers/peripheral/tcpwm/cy_tcpwm.h **** * * 16- or 32-bit Counter
 103:Generated_Source\PSoC6\pdl\drivers/peripheral/tcpwm/cy_tcpwm.h **** * * Counter Resolution of x1, x2, and x4 the frequency of the phiA (Count) and 
 104:Generated_Source\PSoC6\pdl\drivers/peripheral/tcpwm/cy_tcpwm.h **** * phiB (Start) inputs
 105:Generated_Source\PSoC6\pdl\drivers/peripheral/tcpwm/cy_tcpwm.h **** * * Index Input to determine absolute position
 106:Generated_Source\PSoC6\pdl\drivers/peripheral/tcpwm/cy_tcpwm.h **** * * A positive edge on phiA increments the counter when phiB is 0 and decrements
 107:Generated_Source\PSoC6\pdl\drivers/peripheral/tcpwm/cy_tcpwm.h **** * the counter when phiB is 1
 108:Generated_Source\PSoC6\pdl\drivers/peripheral/tcpwm/cy_tcpwm.h **** *
 109:Generated_Source\PSoC6\pdl\drivers/peripheral/tcpwm/cy_tcpwm.h **** * \section group_tcpwm_configuration Configuration Considerations
 110:Generated_Source\PSoC6\pdl\drivers/peripheral/tcpwm/cy_tcpwm.h **** *
 111:Generated_Source\PSoC6\pdl\drivers/peripheral/tcpwm/cy_tcpwm.h **** * For each mode, the TCPWM driver has a configuration structure, an Init 
 112:Generated_Source\PSoC6\pdl\drivers/peripheral/tcpwm/cy_tcpwm.h **** * function, and an Enable function. 
 113:Generated_Source\PSoC6\pdl\drivers/peripheral/tcpwm/cy_tcpwm.h **** *
 114:Generated_Source\PSoC6\pdl\drivers/peripheral/tcpwm/cy_tcpwm.h **** * Provide the configuration parameters in the appropriate structure (see
 115:Generated_Source\PSoC6\pdl\drivers/peripheral/tcpwm/cy_tcpwm.h **** * Counter \ref group_tcpwm_data_structures_counter, PWM 
 116:Generated_Source\PSoC6\pdl\drivers/peripheral/tcpwm/cy_tcpwm.h **** * \ref group_tcpwm_data_structures_pwm, or QuadDec 
 117:Generated_Source\PSoC6\pdl\drivers/peripheral/tcpwm/cy_tcpwm.h **** * \ref group_tcpwm_data_structures_quaddec). 
 118:Generated_Source\PSoC6\pdl\drivers/peripheral/tcpwm/cy_tcpwm.h **** * Then call the appropriate Init function: 
 119:Generated_Source\PSoC6\pdl\drivers/peripheral/tcpwm/cy_tcpwm.h **** * \ref Cy_TCPWM_Counter_Init, \ref Cy_TCPWM_PWM_Init, or 
 120:Generated_Source\PSoC6\pdl\drivers/peripheral/tcpwm/cy_tcpwm.h **** * \ref Cy_TCPWM_QuadDec_Init. Provide the address of the filled structure as a 
 121:Generated_Source\PSoC6\pdl\drivers/peripheral/tcpwm/cy_tcpwm.h **** * parameter. To enable the counter, call the appropriate Enable function: 
 122:Generated_Source\PSoC6\pdl\drivers/peripheral/tcpwm/cy_tcpwm.h **** * \ref Cy_TCPWM_Counter_Enable, \ref Cy_TCPWM_PWM_Enable, or 
 123:Generated_Source\PSoC6\pdl\drivers/peripheral/tcpwm/cy_tcpwm.h **** * \ref Cy_TCPWM_QuadDec_Enable).
 124:Generated_Source\PSoC6\pdl\drivers/peripheral/tcpwm/cy_tcpwm.h **** *
 125:Generated_Source\PSoC6\pdl\drivers/peripheral/tcpwm/cy_tcpwm.h **** * Many functions work with an individual counter. You can also manage multiple 
 126:Generated_Source\PSoC6\pdl\drivers/peripheral/tcpwm/cy_tcpwm.h **** * counters simultaneously for certain functions. These are listed in the 
 127:Generated_Source\PSoC6\pdl\drivers/peripheral/tcpwm/cy_tcpwm.h **** * \ref group_tcpwm_functions_common 
 128:Generated_Source\PSoC6\pdl\drivers/peripheral/tcpwm/cy_tcpwm.h **** * section of the TCPWM. You can enable, disable, or trigger (in various ways) 
 129:Generated_Source\PSoC6\pdl\drivers/peripheral/tcpwm/cy_tcpwm.h **** * multiple counters simultaneously. For these functions you provide a bit field 
 130:Generated_Source\PSoC6\pdl\drivers/peripheral/tcpwm/cy_tcpwm.h **** * representing each counter in the TCPWM you want to control. You can 
 131:Generated_Source\PSoC6\pdl\drivers/peripheral/tcpwm/cy_tcpwm.h **** * represent the bit field as an ORed mask of each counter, like 
 132:Generated_Source\PSoC6\pdl\drivers/peripheral/tcpwm/cy_tcpwm.h **** * ((1U << cntNumX) | (1U << cntNumX) | (1U << cntNumX)), where X is the counter 
 133:Generated_Source\PSoC6\pdl\drivers/peripheral/tcpwm/cy_tcpwm.h **** * number from 0 to 31.
 134:Generated_Source\PSoC6\pdl\drivers/peripheral/tcpwm/cy_tcpwm.h **** *
 135:Generated_Source\PSoC6\pdl\drivers/peripheral/tcpwm/cy_tcpwm.h **** * \note
 136:Generated_Source\PSoC6\pdl\drivers/peripheral/tcpwm/cy_tcpwm.h **** * * If none of the input terminals (start, reload(index)) are used, the 
 137:Generated_Source\PSoC6\pdl\drivers/peripheral/tcpwm/cy_tcpwm.h **** * software event \ref Cy_TCPWM_TriggerStart or 
 138:Generated_Source\PSoC6\pdl\drivers/peripheral/tcpwm/cy_tcpwm.h **** * \ref Cy_TCPWM_TriggerReloadOrIndex must be called to start the counting.
 139:Generated_Source\PSoC6\pdl\drivers/peripheral/tcpwm/cy_tcpwm.h **** * * If count input terminal is not used, the \ref CY_TCPWM_INPUT_LEVEL macro 
 140:Generated_Source\PSoC6\pdl\drivers/peripheral/tcpwm/cy_tcpwm.h **** * should be set for the countInputMode parameter and the \ref CY_TCPWM_INPUT_1 
 141:Generated_Source\PSoC6\pdl\drivers/peripheral/tcpwm/cy_tcpwm.h **** * macro should be set for the countInputMode parameter in the configuration 
 142:Generated_Source\PSoC6\pdl\drivers/peripheral/tcpwm/cy_tcpwm.h **** * structure of the appropriate mode(Counter 
 143:Generated_Source\PSoC6\pdl\drivers/peripheral/tcpwm/cy_tcpwm.h **** * \ref group_tcpwm_data_structures_counter, PWM 
 144:Generated_Source\PSoC6\pdl\drivers/peripheral/tcpwm/cy_tcpwm.h **** * \ref group_tcpwm_data_structures_pwm, or QuadDec 
 145:Generated_Source\PSoC6\pdl\drivers/peripheral/tcpwm/cy_tcpwm.h **** * \ref group_tcpwm_data_structures_quaddec).
 146:Generated_Source\PSoC6\pdl\drivers/peripheral/tcpwm/cy_tcpwm.h **** *
 147:Generated_Source\PSoC6\pdl\drivers/peripheral/tcpwm/cy_tcpwm.h **** * \section group_tcpwm_more_information More Information
 148:Generated_Source\PSoC6\pdl\drivers/peripheral/tcpwm/cy_tcpwm.h **** *
 149:Generated_Source\PSoC6\pdl\drivers/peripheral/tcpwm/cy_tcpwm.h **** * For more information on the TCPWM peripheral, refer to the technical 
 150:Generated_Source\PSoC6\pdl\drivers/peripheral/tcpwm/cy_tcpwm.h **** * reference manual (TRM).
 151:Generated_Source\PSoC6\pdl\drivers/peripheral/tcpwm/cy_tcpwm.h **** *
 152:Generated_Source\PSoC6\pdl\drivers/peripheral/tcpwm/cy_tcpwm.h **** * \section group_tcpwm_MISRA MISRA-C Compliance 
ARM GAS  C:\Users\PC\AppData\Local\Temp\ccXlt19g.s 			page 16


 153:Generated_Source\PSoC6\pdl\drivers/peripheral/tcpwm/cy_tcpwm.h **** * <table class="doxtable">
 154:Generated_Source\PSoC6\pdl\drivers/peripheral/tcpwm/cy_tcpwm.h **** *   <tr>
 155:Generated_Source\PSoC6\pdl\drivers/peripheral/tcpwm/cy_tcpwm.h **** *     <th>MISRA Rule</th>
 156:Generated_Source\PSoC6\pdl\drivers/peripheral/tcpwm/cy_tcpwm.h **** *     <th>Rule Class (Required/Advisory)</th>
 157:Generated_Source\PSoC6\pdl\drivers/peripheral/tcpwm/cy_tcpwm.h **** *     <th>Rule Description</th>
 158:Generated_Source\PSoC6\pdl\drivers/peripheral/tcpwm/cy_tcpwm.h **** *     <th>Description of Deviation(s)</th>
 159:Generated_Source\PSoC6\pdl\drivers/peripheral/tcpwm/cy_tcpwm.h **** *   </tr>
 160:Generated_Source\PSoC6\pdl\drivers/peripheral/tcpwm/cy_tcpwm.h **** *   <tr>
 161:Generated_Source\PSoC6\pdl\drivers/peripheral/tcpwm/cy_tcpwm.h **** *     <td>14.2</td>
 162:Generated_Source\PSoC6\pdl\drivers/peripheral/tcpwm/cy_tcpwm.h **** *     <td>R</td>
 163:Generated_Source\PSoC6\pdl\drivers/peripheral/tcpwm/cy_tcpwm.h **** *     <td>All non-null statements shall either: a) have at least one side-effect
 164:Generated_Source\PSoC6\pdl\drivers/peripheral/tcpwm/cy_tcpwm.h **** *         however executed, or b) cause control flow to change.</td>
 165:Generated_Source\PSoC6\pdl\drivers/peripheral/tcpwm/cy_tcpwm.h **** *     <td>The unused function parameters are cast to void. This statement
 166:Generated_Source\PSoC6\pdl\drivers/peripheral/tcpwm/cy_tcpwm.h **** *         has no side-effect and is used to suppress a compiler warning.</td>
 167:Generated_Source\PSoC6\pdl\drivers/peripheral/tcpwm/cy_tcpwm.h **** *   </tr>
 168:Generated_Source\PSoC6\pdl\drivers/peripheral/tcpwm/cy_tcpwm.h **** * </table>
 169:Generated_Source\PSoC6\pdl\drivers/peripheral/tcpwm/cy_tcpwm.h **** *
 170:Generated_Source\PSoC6\pdl\drivers/peripheral/tcpwm/cy_tcpwm.h **** * \section group_tcpwm_changelog Changelog
 171:Generated_Source\PSoC6\pdl\drivers/peripheral/tcpwm/cy_tcpwm.h **** * <table class="doxtable">
 172:Generated_Source\PSoC6\pdl\drivers/peripheral/tcpwm/cy_tcpwm.h **** *   <tr><th>Version</th><th>Changes</th><th>Reason for Change</th></tr>
 173:Generated_Source\PSoC6\pdl\drivers/peripheral/tcpwm/cy_tcpwm.h **** *   <tr>
 174:Generated_Source\PSoC6\pdl\drivers/peripheral/tcpwm/cy_tcpwm.h **** *     <td>1.0.1</td>
 175:Generated_Source\PSoC6\pdl\drivers/peripheral/tcpwm/cy_tcpwm.h **** *     <td>Added a deviation to the MISRA Compliance section.
 176:Generated_Source\PSoC6\pdl\drivers/peripheral/tcpwm/cy_tcpwm.h **** *         Added function-level code snippets.</td>
 177:Generated_Source\PSoC6\pdl\drivers/peripheral/tcpwm/cy_tcpwm.h **** *     <td>Documentation update and clarification</td>
 178:Generated_Source\PSoC6\pdl\drivers/peripheral/tcpwm/cy_tcpwm.h **** *   </tr>
 179:Generated_Source\PSoC6\pdl\drivers/peripheral/tcpwm/cy_tcpwm.h **** *   <tr>
 180:Generated_Source\PSoC6\pdl\drivers/peripheral/tcpwm/cy_tcpwm.h **** *     <td>1.0</td>
 181:Generated_Source\PSoC6\pdl\drivers/peripheral/tcpwm/cy_tcpwm.h **** *     <td>Initial version</td>
 182:Generated_Source\PSoC6\pdl\drivers/peripheral/tcpwm/cy_tcpwm.h **** *     <td></td>
 183:Generated_Source\PSoC6\pdl\drivers/peripheral/tcpwm/cy_tcpwm.h **** *   </tr>
 184:Generated_Source\PSoC6\pdl\drivers/peripheral/tcpwm/cy_tcpwm.h **** * </table>
 185:Generated_Source\PSoC6\pdl\drivers/peripheral/tcpwm/cy_tcpwm.h **** */
 186:Generated_Source\PSoC6\pdl\drivers/peripheral/tcpwm/cy_tcpwm.h **** 
 187:Generated_Source\PSoC6\pdl\drivers/peripheral/tcpwm/cy_tcpwm.h **** /** \} group_tcpwm */
 188:Generated_Source\PSoC6\pdl\drivers/peripheral/tcpwm/cy_tcpwm.h **** 
 189:Generated_Source\PSoC6\pdl\drivers/peripheral/tcpwm/cy_tcpwm.h **** /**
 190:Generated_Source\PSoC6\pdl\drivers/peripheral/tcpwm/cy_tcpwm.h **** * \addtogroup group_tcpwm_common
 191:Generated_Source\PSoC6\pdl\drivers/peripheral/tcpwm/cy_tcpwm.h **** * Common API for the Timer Counter PWM Block.
 192:Generated_Source\PSoC6\pdl\drivers/peripheral/tcpwm/cy_tcpwm.h **** * \{
 193:Generated_Source\PSoC6\pdl\drivers/peripheral/tcpwm/cy_tcpwm.h **** * \defgroup group_tcpwm_macros_common           Macros
 194:Generated_Source\PSoC6\pdl\drivers/peripheral/tcpwm/cy_tcpwm.h **** * \defgroup group_tcpwm_functions_common        Functions
 195:Generated_Source\PSoC6\pdl\drivers/peripheral/tcpwm/cy_tcpwm.h **** * \defgroup group_tcpwm_data_structures_common  Data Structures
 196:Generated_Source\PSoC6\pdl\drivers/peripheral/tcpwm/cy_tcpwm.h **** * \defgroup group_tcpwm_enums Enumerated Types
 197:Generated_Source\PSoC6\pdl\drivers/peripheral/tcpwm/cy_tcpwm.h **** */
 198:Generated_Source\PSoC6\pdl\drivers/peripheral/tcpwm/cy_tcpwm.h **** 
 199:Generated_Source\PSoC6\pdl\drivers/peripheral/tcpwm/cy_tcpwm.h **** 
 200:Generated_Source\PSoC6\pdl\drivers/peripheral/tcpwm/cy_tcpwm.h **** #if !defined(CY_TCPWM_H)
 201:Generated_Source\PSoC6\pdl\drivers/peripheral/tcpwm/cy_tcpwm.h **** #define CY_TCPWM_H
 202:Generated_Source\PSoC6\pdl\drivers/peripheral/tcpwm/cy_tcpwm.h **** 
 203:Generated_Source\PSoC6\pdl\drivers/peripheral/tcpwm/cy_tcpwm.h **** #include <stdint.h>
 204:Generated_Source\PSoC6\pdl\drivers/peripheral/tcpwm/cy_tcpwm.h **** #include <stdbool.h>
 205:Generated_Source\PSoC6\pdl\drivers/peripheral/tcpwm/cy_tcpwm.h **** #include <stddef.h>
 206:Generated_Source\PSoC6\pdl\drivers/peripheral/tcpwm/cy_tcpwm.h **** #include "syslib/cy_syslib.h"
 207:Generated_Source\PSoC6\pdl\drivers/peripheral/tcpwm/cy_tcpwm.h **** #include "cy_device_headers.h"
 208:Generated_Source\PSoC6\pdl\drivers/peripheral/tcpwm/cy_tcpwm.h **** 
 209:Generated_Source\PSoC6\pdl\drivers/peripheral/tcpwm/cy_tcpwm.h **** #ifndef CY_IP_MXTCPWM
ARM GAS  C:\Users\PC\AppData\Local\Temp\ccXlt19g.s 			page 17


 210:Generated_Source\PSoC6\pdl\drivers/peripheral/tcpwm/cy_tcpwm.h ****     #error "The TCPWM driver is not supported on this device"
 211:Generated_Source\PSoC6\pdl\drivers/peripheral/tcpwm/cy_tcpwm.h **** #endif
 212:Generated_Source\PSoC6\pdl\drivers/peripheral/tcpwm/cy_tcpwm.h **** 
 213:Generated_Source\PSoC6\pdl\drivers/peripheral/tcpwm/cy_tcpwm.h **** #if defined(__cplusplus)
 214:Generated_Source\PSoC6\pdl\drivers/peripheral/tcpwm/cy_tcpwm.h **** extern "C" {
 215:Generated_Source\PSoC6\pdl\drivers/peripheral/tcpwm/cy_tcpwm.h **** #endif
 216:Generated_Source\PSoC6\pdl\drivers/peripheral/tcpwm/cy_tcpwm.h **** 
 217:Generated_Source\PSoC6\pdl\drivers/peripheral/tcpwm/cy_tcpwm.h **** /**
 218:Generated_Source\PSoC6\pdl\drivers/peripheral/tcpwm/cy_tcpwm.h **** * \addtogroup group_tcpwm_macros_common
 219:Generated_Source\PSoC6\pdl\drivers/peripheral/tcpwm/cy_tcpwm.h **** * \{
 220:Generated_Source\PSoC6\pdl\drivers/peripheral/tcpwm/cy_tcpwm.h **** */
 221:Generated_Source\PSoC6\pdl\drivers/peripheral/tcpwm/cy_tcpwm.h **** 
 222:Generated_Source\PSoC6\pdl\drivers/peripheral/tcpwm/cy_tcpwm.h **** /** Driver major version */
 223:Generated_Source\PSoC6\pdl\drivers/peripheral/tcpwm/cy_tcpwm.h **** #define CY_TCPWM_DRV_VERSION_MAJOR       1
 224:Generated_Source\PSoC6\pdl\drivers/peripheral/tcpwm/cy_tcpwm.h **** 
 225:Generated_Source\PSoC6\pdl\drivers/peripheral/tcpwm/cy_tcpwm.h **** /** Driver minor version */
 226:Generated_Source\PSoC6\pdl\drivers/peripheral/tcpwm/cy_tcpwm.h **** #define CY_TCPWM_DRV_VERSION_MINOR       0
 227:Generated_Source\PSoC6\pdl\drivers/peripheral/tcpwm/cy_tcpwm.h **** 
 228:Generated_Source\PSoC6\pdl\drivers/peripheral/tcpwm/cy_tcpwm.h **** 
 229:Generated_Source\PSoC6\pdl\drivers/peripheral/tcpwm/cy_tcpwm.h **** /******************************************************************************
 230:Generated_Source\PSoC6\pdl\drivers/peripheral/tcpwm/cy_tcpwm.h **** * API Constants
 231:Generated_Source\PSoC6\pdl\drivers/peripheral/tcpwm/cy_tcpwm.h **** ******************************************************************************/
 232:Generated_Source\PSoC6\pdl\drivers/peripheral/tcpwm/cy_tcpwm.h **** 
 233:Generated_Source\PSoC6\pdl\drivers/peripheral/tcpwm/cy_tcpwm.h **** /** TCPWM driver identifier */
 234:Generated_Source\PSoC6\pdl\drivers/peripheral/tcpwm/cy_tcpwm.h **** #define CY_TCPWM_ID                     (CY_PDL_DRV_ID(0x2DU))
 235:Generated_Source\PSoC6\pdl\drivers/peripheral/tcpwm/cy_tcpwm.h **** 
 236:Generated_Source\PSoC6\pdl\drivers/peripheral/tcpwm/cy_tcpwm.h **** /** \defgroup group_tcpwm_input_selection  TCPWM Input Selection
 237:Generated_Source\PSoC6\pdl\drivers/peripheral/tcpwm/cy_tcpwm.h **** * \{
 238:Generated_Source\PSoC6\pdl\drivers/peripheral/tcpwm/cy_tcpwm.h **** * Selects which input to use
 239:Generated_Source\PSoC6\pdl\drivers/peripheral/tcpwm/cy_tcpwm.h **** */
 240:Generated_Source\PSoC6\pdl\drivers/peripheral/tcpwm/cy_tcpwm.h **** #define CY_TCPWM_INPUT_0                (0U)  /**< Input is tied to logic 0 */
 241:Generated_Source\PSoC6\pdl\drivers/peripheral/tcpwm/cy_tcpwm.h **** #define CY_TCPWM_INPUT_1                (1U)  /**< Input is tied to logic 1 */
 242:Generated_Source\PSoC6\pdl\drivers/peripheral/tcpwm/cy_tcpwm.h **** #define CY_TCPWM_INPUT_TRIG_0           (2U)  /**< Input is connected to the trigger input 0 */
 243:Generated_Source\PSoC6\pdl\drivers/peripheral/tcpwm/cy_tcpwm.h **** #define CY_TCPWM_INPUT_TRIG_1           (3U)  /**< Input is connected to the trigger input 1 */
 244:Generated_Source\PSoC6\pdl\drivers/peripheral/tcpwm/cy_tcpwm.h **** #define CY_TCPWM_INPUT_TRIG_2           (4U)  /**< Input is connected to the trigger input 2 */
 245:Generated_Source\PSoC6\pdl\drivers/peripheral/tcpwm/cy_tcpwm.h **** #define CY_TCPWM_INPUT_TRIG_3           (5U)  /**< Input is connected to the trigger input 3 */
 246:Generated_Source\PSoC6\pdl\drivers/peripheral/tcpwm/cy_tcpwm.h **** #define CY_TCPWM_INPUT_TRIG_4           (6U)  /**< Input is connected to the trigger input 4 */
 247:Generated_Source\PSoC6\pdl\drivers/peripheral/tcpwm/cy_tcpwm.h **** #define CY_TCPWM_INPUT_TRIG_5           (7U)  /**< Input is connected to the trigger input 5 */
 248:Generated_Source\PSoC6\pdl\drivers/peripheral/tcpwm/cy_tcpwm.h **** #define CY_TCPWM_INPUT_TRIG_6           (8U)  /**< Input is connected to the trigger input 6 */
 249:Generated_Source\PSoC6\pdl\drivers/peripheral/tcpwm/cy_tcpwm.h **** #define CY_TCPWM_INPUT_TRIG_7           (9U)  /**< Input is connected to the trigger input 7 */
 250:Generated_Source\PSoC6\pdl\drivers/peripheral/tcpwm/cy_tcpwm.h **** #define CY_TCPWM_INPUT_TRIG_8           (10U) /**< Input is connected to the trigger input 8 */
 251:Generated_Source\PSoC6\pdl\drivers/peripheral/tcpwm/cy_tcpwm.h **** #define CY_TCPWM_INPUT_TRIG_9           (11U) /**< Input is connected to the trigger input 9 */
 252:Generated_Source\PSoC6\pdl\drivers/peripheral/tcpwm/cy_tcpwm.h **** #define CY_TCPWM_INPUT_TRIG_10          (12U) /**< Input is connected to the trigger input 10 */
 253:Generated_Source\PSoC6\pdl\drivers/peripheral/tcpwm/cy_tcpwm.h **** #define CY_TCPWM_INPUT_TRIG_11          (13U) /**< Input is connected to the trigger input 11 */
 254:Generated_Source\PSoC6\pdl\drivers/peripheral/tcpwm/cy_tcpwm.h **** #define CY_TCPWM_INPUT_TRIG_12          (14U) /**< Input is connected to the trigger input 12 */
 255:Generated_Source\PSoC6\pdl\drivers/peripheral/tcpwm/cy_tcpwm.h **** #define CY_TCPWM_INPUT_TRIG_13          (15U) /**< Input is connected to the trigger input 13 */
 256:Generated_Source\PSoC6\pdl\drivers/peripheral/tcpwm/cy_tcpwm.h **** 
 257:Generated_Source\PSoC6\pdl\drivers/peripheral/tcpwm/cy_tcpwm.h **** /** Input is defined by Creator, and Init() function does not need to configure input */
 258:Generated_Source\PSoC6\pdl\drivers/peripheral/tcpwm/cy_tcpwm.h **** #define CY_TCPWM_INPUT_CREATOR          (0xFFFFFFFFU)
 259:Generated_Source\PSoC6\pdl\drivers/peripheral/tcpwm/cy_tcpwm.h **** /** \} group_tcpwm_input_selection */
 260:Generated_Source\PSoC6\pdl\drivers/peripheral/tcpwm/cy_tcpwm.h **** 
 261:Generated_Source\PSoC6\pdl\drivers/peripheral/tcpwm/cy_tcpwm.h **** /**
 262:Generated_Source\PSoC6\pdl\drivers/peripheral/tcpwm/cy_tcpwm.h **** * \defgroup group_tcpwm_input_modes  Input Modes
 263:Generated_Source\PSoC6\pdl\drivers/peripheral/tcpwm/cy_tcpwm.h **** * \{
 264:Generated_Source\PSoC6\pdl\drivers/peripheral/tcpwm/cy_tcpwm.h **** * Configures how TCPWM inputs behave
 265:Generated_Source\PSoC6\pdl\drivers/peripheral/tcpwm/cy_tcpwm.h **** */
 266:Generated_Source\PSoC6\pdl\drivers/peripheral/tcpwm/cy_tcpwm.h **** /** A rising edge triggers the event (Capture, Start, Reload, etc..) */
ARM GAS  C:\Users\PC\AppData\Local\Temp\ccXlt19g.s 			page 18


 267:Generated_Source\PSoC6\pdl\drivers/peripheral/tcpwm/cy_tcpwm.h **** #define CY_TCPWM_INPUT_RISINGEDGE       (0U)
 268:Generated_Source\PSoC6\pdl\drivers/peripheral/tcpwm/cy_tcpwm.h **** /** A falling edge triggers the event (Capture, Start, Reload, etc..) */
 269:Generated_Source\PSoC6\pdl\drivers/peripheral/tcpwm/cy_tcpwm.h **** #define CY_TCPWM_INPUT_FALLINGEDGE      (1U)
 270:Generated_Source\PSoC6\pdl\drivers/peripheral/tcpwm/cy_tcpwm.h **** /** A rising edge or falling edge triggers the event (Capture, Start, Reload, etc..) */
 271:Generated_Source\PSoC6\pdl\drivers/peripheral/tcpwm/cy_tcpwm.h **** #define CY_TCPWM_INPUT_EITHEREDGE       (2U)
 272:Generated_Source\PSoC6\pdl\drivers/peripheral/tcpwm/cy_tcpwm.h **** /** The event is triggered on each edge of the TCPWM clock if the input is high */
 273:Generated_Source\PSoC6\pdl\drivers/peripheral/tcpwm/cy_tcpwm.h **** #define CY_TCPWM_INPUT_LEVEL            (3U)
 274:Generated_Source\PSoC6\pdl\drivers/peripheral/tcpwm/cy_tcpwm.h **** /** \} group_tcpwm_input_modes */
 275:Generated_Source\PSoC6\pdl\drivers/peripheral/tcpwm/cy_tcpwm.h **** 
 276:Generated_Source\PSoC6\pdl\drivers/peripheral/tcpwm/cy_tcpwm.h **** /**
 277:Generated_Source\PSoC6\pdl\drivers/peripheral/tcpwm/cy_tcpwm.h **** * \defgroup group_tcpwm_interrupt_sources  Interrupt Sources
 278:Generated_Source\PSoC6\pdl\drivers/peripheral/tcpwm/cy_tcpwm.h **** * \{
 279:Generated_Source\PSoC6\pdl\drivers/peripheral/tcpwm/cy_tcpwm.h **** * Interrupt Sources 
 280:Generated_Source\PSoC6\pdl\drivers/peripheral/tcpwm/cy_tcpwm.h **** */
 281:Generated_Source\PSoC6\pdl\drivers/peripheral/tcpwm/cy_tcpwm.h **** #define CY_TCPWM_INT_ON_TC              (1U) /**< Interrupt on Terminal count(TC) */
 282:Generated_Source\PSoC6\pdl\drivers/peripheral/tcpwm/cy_tcpwm.h **** #define CY_TCPWM_INT_ON_CC              (2U) /**< Interrupt on Compare/Capture(CC) */
 283:Generated_Source\PSoC6\pdl\drivers/peripheral/tcpwm/cy_tcpwm.h **** #define CY_TCPWM_INT_NONE               (0U) /**< No Interrupt */
 284:Generated_Source\PSoC6\pdl\drivers/peripheral/tcpwm/cy_tcpwm.h **** #define CY_TCPWM_INT_ON_CC_OR_TC        (3U) /**< Interrupt on TC or CC */
 285:Generated_Source\PSoC6\pdl\drivers/peripheral/tcpwm/cy_tcpwm.h **** /** \} group_tcpwm_interrupt_sources */
 286:Generated_Source\PSoC6\pdl\drivers/peripheral/tcpwm/cy_tcpwm.h **** 
 287:Generated_Source\PSoC6\pdl\drivers/peripheral/tcpwm/cy_tcpwm.h **** 
 288:Generated_Source\PSoC6\pdl\drivers/peripheral/tcpwm/cy_tcpwm.h **** /***************************************
 289:Generated_Source\PSoC6\pdl\drivers/peripheral/tcpwm/cy_tcpwm.h **** *        Registers Constants
 290:Generated_Source\PSoC6\pdl\drivers/peripheral/tcpwm/cy_tcpwm.h **** ***************************************/
 291:Generated_Source\PSoC6\pdl\drivers/peripheral/tcpwm/cy_tcpwm.h **** 
 292:Generated_Source\PSoC6\pdl\drivers/peripheral/tcpwm/cy_tcpwm.h **** /**
 293:Generated_Source\PSoC6\pdl\drivers/peripheral/tcpwm/cy_tcpwm.h **** * \defgroup group_tcpwm_reg_const Default registers constants
 294:Generated_Source\PSoC6\pdl\drivers/peripheral/tcpwm/cy_tcpwm.h **** * \{
 295:Generated_Source\PSoC6\pdl\drivers/peripheral/tcpwm/cy_tcpwm.h **** * Default constants for CNT Registers
 296:Generated_Source\PSoC6\pdl\drivers/peripheral/tcpwm/cy_tcpwm.h **** */
 297:Generated_Source\PSoC6\pdl\drivers/peripheral/tcpwm/cy_tcpwm.h **** #define CY_TCPWM_CNT_CTRL_DEFAULT           (0x0U) /**< Default value for CTRL register */
 298:Generated_Source\PSoC6\pdl\drivers/peripheral/tcpwm/cy_tcpwm.h **** #define CY_TCPWM_CNT_COUNTER_DEFAULT        (0x0U) /**< Default value for COUNTER register */
 299:Generated_Source\PSoC6\pdl\drivers/peripheral/tcpwm/cy_tcpwm.h **** #define CY_TCPWM_CNT_CC_DEFAULT             (0xFFFFFFFFU) /**< Default value for CC register */
 300:Generated_Source\PSoC6\pdl\drivers/peripheral/tcpwm/cy_tcpwm.h **** #define CY_TCPWM_CNT_CC_BUFF_DEFAULT        (0xFFFFFFFFU) /**< Default value for CC_BUFF register *
 301:Generated_Source\PSoC6\pdl\drivers/peripheral/tcpwm/cy_tcpwm.h **** #define CY_TCPWM_CNT_PERIOD_DEFAULT         (0xFFFFFFFFU) /**< Default value for PERIOD register */
 302:Generated_Source\PSoC6\pdl\drivers/peripheral/tcpwm/cy_tcpwm.h **** #define CY_TCPWM_CNT_PERIOD_BUFF_DEFAULT    (0xFFFFFFFFU) /**< Default value for PERIOD_BUFF regist
 303:Generated_Source\PSoC6\pdl\drivers/peripheral/tcpwm/cy_tcpwm.h **** #define CY_TCPWM_CNT_TR_CTRL0_DEFAULT       (0x10U)  /**< Default value for TR_CTRL0 register */
 304:Generated_Source\PSoC6\pdl\drivers/peripheral/tcpwm/cy_tcpwm.h **** #define CY_TCPWM_CNT_TR_CTRL1_DEFAULT       (0x3FFU) /**< Default value for TR_CTRL1 register */
 305:Generated_Source\PSoC6\pdl\drivers/peripheral/tcpwm/cy_tcpwm.h **** #define CY_TCPWM_CNT_TR_CTRL2_DEFAULT       (0x3FU)  /**< Default value for TR_CTRL2 register */
 306:Generated_Source\PSoC6\pdl\drivers/peripheral/tcpwm/cy_tcpwm.h **** #define CY_TCPWM_CNT_INTR_DEFAULT           (0x3U)   /**< Default value for INTR register */
 307:Generated_Source\PSoC6\pdl\drivers/peripheral/tcpwm/cy_tcpwm.h **** #define CY_TCPWM_CNT_INTR_SET_DEFAULT       (0x0U)   /**< Default value for INTR_SET register */
 308:Generated_Source\PSoC6\pdl\drivers/peripheral/tcpwm/cy_tcpwm.h **** #define CY_TCPWM_CNT_INTR_MASK_DEFAULT      (0x0U)   /**< Default value for INTR_MASK register */
 309:Generated_Source\PSoC6\pdl\drivers/peripheral/tcpwm/cy_tcpwm.h **** /** \} group_tcpwm_reg_const */
 310:Generated_Source\PSoC6\pdl\drivers/peripheral/tcpwm/cy_tcpwm.h **** 
 311:Generated_Source\PSoC6\pdl\drivers/peripheral/tcpwm/cy_tcpwm.h **** /** Position of Up counting counter status */
 312:Generated_Source\PSoC6\pdl\drivers/peripheral/tcpwm/cy_tcpwm.h **** #define CY_TCPWM_CNT_STATUS_UP_POS          (0x1U)
 313:Generated_Source\PSoC6\pdl\drivers/peripheral/tcpwm/cy_tcpwm.h **** /** Initial value for the counter in the Up counting mode */
 314:Generated_Source\PSoC6\pdl\drivers/peripheral/tcpwm/cy_tcpwm.h **** #define CY_TCPWM_CNT_UP_INIT_VAL            (0x0U)
 315:Generated_Source\PSoC6\pdl\drivers/peripheral/tcpwm/cy_tcpwm.h **** /** Initial value for the counter in the Up/Down counting modes */
 316:Generated_Source\PSoC6\pdl\drivers/peripheral/tcpwm/cy_tcpwm.h **** #define CY_TCPWM_CNT_UP_DOWN_INIT_VAL       (0x1U)
 317:Generated_Source\PSoC6\pdl\drivers/peripheral/tcpwm/cy_tcpwm.h **** /** \} group_tcpwm_macros_common */
 318:Generated_Source\PSoC6\pdl\drivers/peripheral/tcpwm/cy_tcpwm.h **** 
 319:Generated_Source\PSoC6\pdl\drivers/peripheral/tcpwm/cy_tcpwm.h **** 
 320:Generated_Source\PSoC6\pdl\drivers/peripheral/tcpwm/cy_tcpwm.h **** /*******************************************************************************
 321:Generated_Source\PSoC6\pdl\drivers/peripheral/tcpwm/cy_tcpwm.h ****  * Enumerations
 322:Generated_Source\PSoC6\pdl\drivers/peripheral/tcpwm/cy_tcpwm.h ****  ******************************************************************************/
 323:Generated_Source\PSoC6\pdl\drivers/peripheral/tcpwm/cy_tcpwm.h **** 
ARM GAS  C:\Users\PC\AppData\Local\Temp\ccXlt19g.s 			page 19


 324:Generated_Source\PSoC6\pdl\drivers/peripheral/tcpwm/cy_tcpwm.h ****  /**
 325:Generated_Source\PSoC6\pdl\drivers/peripheral/tcpwm/cy_tcpwm.h **** * \addtogroup group_tcpwm_enums
 326:Generated_Source\PSoC6\pdl\drivers/peripheral/tcpwm/cy_tcpwm.h **** * \{
 327:Generated_Source\PSoC6\pdl\drivers/peripheral/tcpwm/cy_tcpwm.h **** */
 328:Generated_Source\PSoC6\pdl\drivers/peripheral/tcpwm/cy_tcpwm.h **** 
 329:Generated_Source\PSoC6\pdl\drivers/peripheral/tcpwm/cy_tcpwm.h **** /** TCPWM status definitions */
 330:Generated_Source\PSoC6\pdl\drivers/peripheral/tcpwm/cy_tcpwm.h **** typedef enum 
 331:Generated_Source\PSoC6\pdl\drivers/peripheral/tcpwm/cy_tcpwm.h **** {
 332:Generated_Source\PSoC6\pdl\drivers/peripheral/tcpwm/cy_tcpwm.h ****     CY_TCPWM_SUCCESS = 0x00U,                                           /**< Successful */
 333:Generated_Source\PSoC6\pdl\drivers/peripheral/tcpwm/cy_tcpwm.h ****     CY_TCPWM_BAD_PARAM = CY_TCPWM_ID | CY_PDL_STATUS_ERROR | 0x01U,     /**< One or more invalid pa
 334:Generated_Source\PSoC6\pdl\drivers/peripheral/tcpwm/cy_tcpwm.h **** } cy_en_tcpwm_status_t;
 335:Generated_Source\PSoC6\pdl\drivers/peripheral/tcpwm/cy_tcpwm.h **** /** \} group_tcpwm_enums */
 336:Generated_Source\PSoC6\pdl\drivers/peripheral/tcpwm/cy_tcpwm.h ****  
 337:Generated_Source\PSoC6\pdl\drivers/peripheral/tcpwm/cy_tcpwm.h **** /*******************************************************************************
 338:Generated_Source\PSoC6\pdl\drivers/peripheral/tcpwm/cy_tcpwm.h **** *        Function Prototypes
 339:Generated_Source\PSoC6\pdl\drivers/peripheral/tcpwm/cy_tcpwm.h **** *******************************************************************************/
 340:Generated_Source\PSoC6\pdl\drivers/peripheral/tcpwm/cy_tcpwm.h **** 
 341:Generated_Source\PSoC6\pdl\drivers/peripheral/tcpwm/cy_tcpwm.h **** /**
 342:Generated_Source\PSoC6\pdl\drivers/peripheral/tcpwm/cy_tcpwm.h **** * \addtogroup group_tcpwm_functions_common
 343:Generated_Source\PSoC6\pdl\drivers/peripheral/tcpwm/cy_tcpwm.h **** * \{
 344:Generated_Source\PSoC6\pdl\drivers/peripheral/tcpwm/cy_tcpwm.h **** */
 345:Generated_Source\PSoC6\pdl\drivers/peripheral/tcpwm/cy_tcpwm.h **** 
 346:Generated_Source\PSoC6\pdl\drivers/peripheral/tcpwm/cy_tcpwm.h **** __STATIC_INLINE void Cy_TCPWM_Enable_Multiple(TCPWM_Type *base, uint32_t counters);
 347:Generated_Source\PSoC6\pdl\drivers/peripheral/tcpwm/cy_tcpwm.h **** __STATIC_INLINE void Cy_TCPWM_Disable_Multiple(TCPWM_Type *base, uint32_t counters);
 348:Generated_Source\PSoC6\pdl\drivers/peripheral/tcpwm/cy_tcpwm.h **** __STATIC_INLINE void Cy_TCPWM_TriggerStart(TCPWM_Type *base, uint32_t counters);
 349:Generated_Source\PSoC6\pdl\drivers/peripheral/tcpwm/cy_tcpwm.h **** __STATIC_INLINE void Cy_TCPWM_TriggerReloadOrIndex(TCPWM_Type *base, uint32_t counters);
 350:Generated_Source\PSoC6\pdl\drivers/peripheral/tcpwm/cy_tcpwm.h **** __STATIC_INLINE void Cy_TCPWM_TriggerStopOrKill(TCPWM_Type *base, uint32_t counters);
 351:Generated_Source\PSoC6\pdl\drivers/peripheral/tcpwm/cy_tcpwm.h **** __STATIC_INLINE void Cy_TCPWM_TriggerCaptureOrSwap(TCPWM_Type *base, uint32_t counters);
 352:Generated_Source\PSoC6\pdl\drivers/peripheral/tcpwm/cy_tcpwm.h **** __STATIC_INLINE uint32_t Cy_TCPWM_GetInterruptStatus(TCPWM_Type const *base, uint32_t cntNum);
 353:Generated_Source\PSoC6\pdl\drivers/peripheral/tcpwm/cy_tcpwm.h **** __STATIC_INLINE void Cy_TCPWM_ClearInterrupt(TCPWM_Type *base, uint32_t cntNum, uint32_t source);
 354:Generated_Source\PSoC6\pdl\drivers/peripheral/tcpwm/cy_tcpwm.h **** __STATIC_INLINE void Cy_TCPWM_SetInterrupt(TCPWM_Type *base, uint32_t cntNum, uint32_t source);
 355:Generated_Source\PSoC6\pdl\drivers/peripheral/tcpwm/cy_tcpwm.h **** __STATIC_INLINE void Cy_TCPWM_SetInterruptMask(TCPWM_Type *base, uint32_t cntNum, uint32_t mask);
 356:Generated_Source\PSoC6\pdl\drivers/peripheral/tcpwm/cy_tcpwm.h **** __STATIC_INLINE uint32_t Cy_TCPWM_GetInterruptMask(TCPWM_Type const *base, uint32_t cntNum);
 357:Generated_Source\PSoC6\pdl\drivers/peripheral/tcpwm/cy_tcpwm.h **** __STATIC_INLINE uint32_t Cy_TCPWM_GetInterruptStatusMasked(TCPWM_Type const *base, uint32_t cntNum)
 358:Generated_Source\PSoC6\pdl\drivers/peripheral/tcpwm/cy_tcpwm.h **** 
 359:Generated_Source\PSoC6\pdl\drivers/peripheral/tcpwm/cy_tcpwm.h **** 
 360:Generated_Source\PSoC6\pdl\drivers/peripheral/tcpwm/cy_tcpwm.h **** /*******************************************************************************
 361:Generated_Source\PSoC6\pdl\drivers/peripheral/tcpwm/cy_tcpwm.h **** * Function Name: Cy_TCPWM_Enable_Multiple
 362:Generated_Source\PSoC6\pdl\drivers/peripheral/tcpwm/cy_tcpwm.h **** ****************************************************************************//**
 363:Generated_Source\PSoC6\pdl\drivers/peripheral/tcpwm/cy_tcpwm.h **** *
 364:Generated_Source\PSoC6\pdl\drivers/peripheral/tcpwm/cy_tcpwm.h **** * Enables the counter(s) in the TCPWM block. Multiple blocks can be started 
 365:Generated_Source\PSoC6\pdl\drivers/peripheral/tcpwm/cy_tcpwm.h **** * simultaneously.
 366:Generated_Source\PSoC6\pdl\drivers/peripheral/tcpwm/cy_tcpwm.h **** *
 367:Generated_Source\PSoC6\pdl\drivers/peripheral/tcpwm/cy_tcpwm.h **** * \param base
 368:Generated_Source\PSoC6\pdl\drivers/peripheral/tcpwm/cy_tcpwm.h **** * The pointer to a TCPWM instance.
 369:Generated_Source\PSoC6\pdl\drivers/peripheral/tcpwm/cy_tcpwm.h **** *
 370:Generated_Source\PSoC6\pdl\drivers/peripheral/tcpwm/cy_tcpwm.h **** * \param counters
 371:Generated_Source\PSoC6\pdl\drivers/peripheral/tcpwm/cy_tcpwm.h **** * A bit field representing each counter in the TCPWM block.
 372:Generated_Source\PSoC6\pdl\drivers/peripheral/tcpwm/cy_tcpwm.h **** *
 373:Generated_Source\PSoC6\pdl\drivers/peripheral/tcpwm/cy_tcpwm.h **** * \funcusage
 374:Generated_Source\PSoC6\pdl\drivers/peripheral/tcpwm/cy_tcpwm.h **** * \snippet tcpwm/tcpwm_v1_0_counter_sut_01.cydsn/main_cm4.c snippet_Cy_TCPWM_Enable_Multiple
 375:Generated_Source\PSoC6\pdl\drivers/peripheral/tcpwm/cy_tcpwm.h **** *
 376:Generated_Source\PSoC6\pdl\drivers/peripheral/tcpwm/cy_tcpwm.h **** *******************************************************************************/
 377:Generated_Source\PSoC6\pdl\drivers/peripheral/tcpwm/cy_tcpwm.h **** __STATIC_INLINE void Cy_TCPWM_Enable_Multiple(TCPWM_Type *base, uint32_t counters)
 378:Generated_Source\PSoC6\pdl\drivers/peripheral/tcpwm/cy_tcpwm.h **** {
 379:Generated_Source\PSoC6\pdl\drivers/peripheral/tcpwm/cy_tcpwm.h ****     base->CTRL_SET = counters;
 380:Generated_Source\PSoC6\pdl\drivers/peripheral/tcpwm/cy_tcpwm.h **** }
ARM GAS  C:\Users\PC\AppData\Local\Temp\ccXlt19g.s 			page 20


 381:Generated_Source\PSoC6\pdl\drivers/peripheral/tcpwm/cy_tcpwm.h **** 
 382:Generated_Source\PSoC6\pdl\drivers/peripheral/tcpwm/cy_tcpwm.h **** 
 383:Generated_Source\PSoC6\pdl\drivers/peripheral/tcpwm/cy_tcpwm.h **** /*******************************************************************************
 384:Generated_Source\PSoC6\pdl\drivers/peripheral/tcpwm/cy_tcpwm.h **** * Function Name: Cy_TCPWM_Disable_Multiple
 385:Generated_Source\PSoC6\pdl\drivers/peripheral/tcpwm/cy_tcpwm.h **** ****************************************************************************//**
 386:Generated_Source\PSoC6\pdl\drivers/peripheral/tcpwm/cy_tcpwm.h **** *
 387:Generated_Source\PSoC6\pdl\drivers/peripheral/tcpwm/cy_tcpwm.h **** * Disables the counter(s) in the TCPWM block. Multiple TCPWM can be disabled 
 388:Generated_Source\PSoC6\pdl\drivers/peripheral/tcpwm/cy_tcpwm.h **** * simultaneously.
 389:Generated_Source\PSoC6\pdl\drivers/peripheral/tcpwm/cy_tcpwm.h **** *
 390:Generated_Source\PSoC6\pdl\drivers/peripheral/tcpwm/cy_tcpwm.h **** * \param base
 391:Generated_Source\PSoC6\pdl\drivers/peripheral/tcpwm/cy_tcpwm.h **** * The pointer to a TCPWM instance.
 392:Generated_Source\PSoC6\pdl\drivers/peripheral/tcpwm/cy_tcpwm.h **** *
 393:Generated_Source\PSoC6\pdl\drivers/peripheral/tcpwm/cy_tcpwm.h **** * \param counters
 394:Generated_Source\PSoC6\pdl\drivers/peripheral/tcpwm/cy_tcpwm.h **** * A bit field representing each counter in the TCPWM block.
 395:Generated_Source\PSoC6\pdl\drivers/peripheral/tcpwm/cy_tcpwm.h **** *
 396:Generated_Source\PSoC6\pdl\drivers/peripheral/tcpwm/cy_tcpwm.h **** * \funcusage
 397:Generated_Source\PSoC6\pdl\drivers/peripheral/tcpwm/cy_tcpwm.h **** * \snippet tcpwm/tcpwm_v1_0_counter_sut_01.cydsn/main_cm4.c snippet_Cy_TCPWM_Disable_Multiple
 398:Generated_Source\PSoC6\pdl\drivers/peripheral/tcpwm/cy_tcpwm.h **** *
 399:Generated_Source\PSoC6\pdl\drivers/peripheral/tcpwm/cy_tcpwm.h **** *******************************************************************************/
 400:Generated_Source\PSoC6\pdl\drivers/peripheral/tcpwm/cy_tcpwm.h **** __STATIC_INLINE void Cy_TCPWM_Disable_Multiple(TCPWM_Type *base, uint32_t counters)
 401:Generated_Source\PSoC6\pdl\drivers/peripheral/tcpwm/cy_tcpwm.h **** {
 402:Generated_Source\PSoC6\pdl\drivers/peripheral/tcpwm/cy_tcpwm.h ****     base->CTRL_CLR = counters;
 112              		.loc 3 402 0
 113 0000 0122     		movs	r2, #1
 114 0002 014B     		ldr	r3, .L9
 115 0004 5A60     		str	r2, [r3, #4]
 116              	.LVL6:
 117 0006 7047     		bx	lr
 118              	.L10:
 119              		.align	2
 120              	.L9:
 121 0008 00003840 		.word	1077411840
 122              	.LBE112:
 123              	.LBE111:
 124              	.LBE110:
 125              		.cfi_endproc
 126              	.LFE550:
 127              		.size	Cy_EINK_TimerStop, .-Cy_EINK_TimerStop
 128              		.section	.text.Cy_EINK_InitSPI,"ax",%progbits
 129              		.align	2
 130              		.global	Cy_EINK_InitSPI
 131              		.thumb
 132              		.thumb_func
 133              		.type	Cy_EINK_InitSPI, %function
 134              	Cy_EINK_InitSPI:
 135              	.LFB551:
 129:eInk Library/cy_eink_psoc_interface.c ****     /* Stop the E-INK Timer */
 130:eInk Library/cy_eink_psoc_interface.c ****     CY_EINK_Timer_Disable();
 131:eInk Library/cy_eink_psoc_interface.c **** }
 132:eInk Library/cy_eink_psoc_interface.c **** 
 133:eInk Library/cy_eink_psoc_interface.c **** /*******************************************************************************
 134:eInk Library/cy_eink_psoc_interface.c **** * Function Name: void Cy_EINK_InitSPI(void)
 135:eInk Library/cy_eink_psoc_interface.c **** ********************************************************************************
 136:eInk Library/cy_eink_psoc_interface.c **** *
 137:eInk Library/cy_eink_psoc_interface.c **** * Summary:
 138:eInk Library/cy_eink_psoc_interface.c **** *  Initializes the SPI block that communicates with the E-INK display.
 139:eInk Library/cy_eink_psoc_interface.c **** *
ARM GAS  C:\Users\PC\AppData\Local\Temp\ccXlt19g.s 			page 21


 140:eInk Library/cy_eink_psoc_interface.c **** * Parameters:
 141:eInk Library/cy_eink_psoc_interface.c **** *  None
 142:eInk Library/cy_eink_psoc_interface.c **** *
 143:eInk Library/cy_eink_psoc_interface.c **** * Return:
 144:eInk Library/cy_eink_psoc_interface.c **** *  None
 145:eInk Library/cy_eink_psoc_interface.c **** *
 146:eInk Library/cy_eink_psoc_interface.c **** * Side Effects:
 147:eInk Library/cy_eink_psoc_interface.c **** *  None
 148:eInk Library/cy_eink_psoc_interface.c **** *******************************************************************************/
 149:eInk Library/cy_eink_psoc_interface.c **** void Cy_EINK_InitSPI(void)
 150:eInk Library/cy_eink_psoc_interface.c **** {
 136              		.loc 1 150 0
 137              		.cfi_startproc
 138              		@ args = 0, pretend = 0, frame = 0
 139              		@ frame_needed = 0, uses_anonymous_args = 0
 140 0000 10B5     		push	{r4, lr}
 141              		.cfi_def_cfa_offset 8
 142              		.cfi_offset 4, -8
 143              		.cfi_offset 14, -4
 151:eInk Library/cy_eink_psoc_interface.c ****     /* Start the SPI master */
 152:eInk Library/cy_eink_psoc_interface.c ****     Cy_SCB_SPI_Init(CY_EINK_SPIM_HW, &CY_EINK_SPIM_config, &CY_EINK_SPIM_context);
 144              		.loc 1 152 0
 145 0002 074C     		ldr	r4, .L13
 146 0004 074A     		ldr	r2, .L13+4
 147 0006 0849     		ldr	r1, .L13+8
 148 0008 2046     		mov	r0, r4
 149 000a FFF7FEFF 		bl	Cy_SCB_SPI_Init
 150              	.LVL7:
 151              	.LBB113:
 152              	.LBB114:
 153              		.file 4 "Generated_Source\\PSoC6\\pdl\\drivers/peripheral/scb/cy_scb_spi.h"
   1:Generated_Source\PSoC6\pdl\drivers/peripheral/scb/cy_scb_spi.h **** /***************************************************************************//**
   2:Generated_Source\PSoC6\pdl\drivers/peripheral/scb/cy_scb_spi.h **** * \file cy_scb_spi.h
   3:Generated_Source\PSoC6\pdl\drivers/peripheral/scb/cy_scb_spi.h **** * \version 2.10
   4:Generated_Source\PSoC6\pdl\drivers/peripheral/scb/cy_scb_spi.h **** *
   5:Generated_Source\PSoC6\pdl\drivers/peripheral/scb/cy_scb_spi.h **** * Provides SPI API declarations of the SCB driver.
   6:Generated_Source\PSoC6\pdl\drivers/peripheral/scb/cy_scb_spi.h **** *
   7:Generated_Source\PSoC6\pdl\drivers/peripheral/scb/cy_scb_spi.h **** ********************************************************************************
   8:Generated_Source\PSoC6\pdl\drivers/peripheral/scb/cy_scb_spi.h **** * \copyright
   9:Generated_Source\PSoC6\pdl\drivers/peripheral/scb/cy_scb_spi.h **** * Copyright 2016-2018, Cypress Semiconductor Corporation.  All rights reserved.
  10:Generated_Source\PSoC6\pdl\drivers/peripheral/scb/cy_scb_spi.h **** * You may use this file only in accordance with the license, terms, conditions,
  11:Generated_Source\PSoC6\pdl\drivers/peripheral/scb/cy_scb_spi.h **** * disclaimers, and limitations in the end user license agreement accompanying
  12:Generated_Source\PSoC6\pdl\drivers/peripheral/scb/cy_scb_spi.h **** * the software package with which this file was provided.
  13:Generated_Source\PSoC6\pdl\drivers/peripheral/scb/cy_scb_spi.h **** *******************************************************************************/
  14:Generated_Source\PSoC6\pdl\drivers/peripheral/scb/cy_scb_spi.h **** 
  15:Generated_Source\PSoC6\pdl\drivers/peripheral/scb/cy_scb_spi.h **** /**
  16:Generated_Source\PSoC6\pdl\drivers/peripheral/scb/cy_scb_spi.h **** * \addtogroup group_scb_spi
  17:Generated_Source\PSoC6\pdl\drivers/peripheral/scb/cy_scb_spi.h **** * \{
  18:Generated_Source\PSoC6\pdl\drivers/peripheral/scb/cy_scb_spi.h **** * Driver API for SPI Bus Peripheral.
  19:Generated_Source\PSoC6\pdl\drivers/peripheral/scb/cy_scb_spi.h **** *
  20:Generated_Source\PSoC6\pdl\drivers/peripheral/scb/cy_scb_spi.h **** * Three different SPI protocols or modes are supported:
  21:Generated_Source\PSoC6\pdl\drivers/peripheral/scb/cy_scb_spi.h **** * * The original SPI protocol as defined by Motorola.
  22:Generated_Source\PSoC6\pdl\drivers/peripheral/scb/cy_scb_spi.h **** * * TI: Uses a short pulse on "spi_select" to indicate a start of transaction.
  23:Generated_Source\PSoC6\pdl\drivers/peripheral/scb/cy_scb_spi.h **** * * National Semiconductor (Microwire): Transmissions and Receptions occur
  24:Generated_Source\PSoC6\pdl\drivers/peripheral/scb/cy_scb_spi.h **** *   separately.
  25:Generated_Source\PSoC6\pdl\drivers/peripheral/scb/cy_scb_spi.h **** * In addition to the standard 8-bit word length, the component supports a
  26:Generated_Source\PSoC6\pdl\drivers/peripheral/scb/cy_scb_spi.h **** * configurable 4- to 16-bit data width for communicating at non-standard SPI
ARM GAS  C:\Users\PC\AppData\Local\Temp\ccXlt19g.s 			page 22


  27:Generated_Source\PSoC6\pdl\drivers/peripheral/scb/cy_scb_spi.h **** * data widths.
  28:Generated_Source\PSoC6\pdl\drivers/peripheral/scb/cy_scb_spi.h **** *
  29:Generated_Source\PSoC6\pdl\drivers/peripheral/scb/cy_scb_spi.h **** * \section group_scb_spi_configuration Configuration Considerations
  30:Generated_Source\PSoC6\pdl\drivers/peripheral/scb/cy_scb_spi.h **** * The SPI driver configuration can be divided to number of sequential
  31:Generated_Source\PSoC6\pdl\drivers/peripheral/scb/cy_scb_spi.h **** * steps listed below:
  32:Generated_Source\PSoC6\pdl\drivers/peripheral/scb/cy_scb_spi.h **** * * \ref group_scb_spi_config
  33:Generated_Source\PSoC6\pdl\drivers/peripheral/scb/cy_scb_spi.h **** * * \ref group_scb_spi_pins
  34:Generated_Source\PSoC6\pdl\drivers/peripheral/scb/cy_scb_spi.h **** * * \ref group_scb_spi_clock
  35:Generated_Source\PSoC6\pdl\drivers/peripheral/scb/cy_scb_spi.h **** * * \ref group_scb_spi_data_rate
  36:Generated_Source\PSoC6\pdl\drivers/peripheral/scb/cy_scb_spi.h **** * * \ref group_scb_spi_intr
  37:Generated_Source\PSoC6\pdl\drivers/peripheral/scb/cy_scb_spi.h **** * * \ref group_scb_spi_enable
  38:Generated_Source\PSoC6\pdl\drivers/peripheral/scb/cy_scb_spi.h **** *
  39:Generated_Source\PSoC6\pdl\drivers/peripheral/scb/cy_scb_spi.h **** * \note
  40:Generated_Source\PSoC6\pdl\drivers/peripheral/scb/cy_scb_spi.h **** * The SPI driver is built on top of the SCB hardware block. The SCB1 instance is
  41:Generated_Source\PSoC6\pdl\drivers/peripheral/scb/cy_scb_spi.h **** * used as an example for all code snippets. Modify the code to match your
  42:Generated_Source\PSoC6\pdl\drivers/peripheral/scb/cy_scb_spi.h **** * design.
  43:Generated_Source\PSoC6\pdl\drivers/peripheral/scb/cy_scb_spi.h **** *
  44:Generated_Source\PSoC6\pdl\drivers/peripheral/scb/cy_scb_spi.h **** * \subsection group_scb_spi_config Configure SPI
  45:Generated_Source\PSoC6\pdl\drivers/peripheral/scb/cy_scb_spi.h **** * To set up the SPI slave driver, provide the configuration parameters in the
  46:Generated_Source\PSoC6\pdl\drivers/peripheral/scb/cy_scb_spi.h **** * \ref cy_stc_scb_spi_config_t structure. For example: provide spiMode,
  47:Generated_Source\PSoC6\pdl\drivers/peripheral/scb/cy_scb_spi.h **** * subMode, sclkMode, oversample, rxDataWidth, and txDataWidth. The other
  48:Generated_Source\PSoC6\pdl\drivers/peripheral/scb/cy_scb_spi.h **** * parameters are optional for operation. To initialize the driver, call
  49:Generated_Source\PSoC6\pdl\drivers/peripheral/scb/cy_scb_spi.h **** * \ref Cy_SCB_SPI_Init function providing a pointer to the filled
  50:Generated_Source\PSoC6\pdl\drivers/peripheral/scb/cy_scb_spi.h **** * \ref cy_stc_scb_spi_config_t structure and allocated \ref cy_stc_scb_spi_context_t.
  51:Generated_Source\PSoC6\pdl\drivers/peripheral/scb/cy_scb_spi.h **** *
  52:Generated_Source\PSoC6\pdl\drivers/peripheral/scb/cy_scb_spi.h **** * \snippet SCB_CompDatasheet_sut_01_revA.cydsn\spi_snippets.c SPI_CFG
  53:Generated_Source\PSoC6\pdl\drivers/peripheral/scb/cy_scb_spi.h **** *
  54:Generated_Source\PSoC6\pdl\drivers/peripheral/scb/cy_scb_spi.h **** * \subsection group_scb_spi_pins Assign and Configure Pins
  55:Generated_Source\PSoC6\pdl\drivers/peripheral/scb/cy_scb_spi.h **** * Only dedicated SCB pins can be used for SPI operation. The HSIOM
  56:Generated_Source\PSoC6\pdl\drivers/peripheral/scb/cy_scb_spi.h **** * register must be configured to connect block to the pins. Also the SPI output
  57:Generated_Source\PSoC6\pdl\drivers/peripheral/scb/cy_scb_spi.h **** * pins must be configured in Strong Drive mode and SPI input pins in
  58:Generated_Source\PSoC6\pdl\drivers/peripheral/scb/cy_scb_spi.h **** * Digital High-Z:
  59:Generated_Source\PSoC6\pdl\drivers/peripheral/scb/cy_scb_spi.h **** *
  60:Generated_Source\PSoC6\pdl\drivers/peripheral/scb/cy_scb_spi.h **** * \snippet SCB_CompDatasheet_sut_01_revA.cydsn\spi_snippets.c SPI_CFG_PINS
  61:Generated_Source\PSoC6\pdl\drivers/peripheral/scb/cy_scb_spi.h **** *
  62:Generated_Source\PSoC6\pdl\drivers/peripheral/scb/cy_scb_spi.h **** * \note
  63:Generated_Source\PSoC6\pdl\drivers/peripheral/scb/cy_scb_spi.h **** * The SCB stops driving pins when it is disabled or enters low power mode (except
  64:Generated_Source\PSoC6\pdl\drivers/peripheral/scb/cy_scb_spi.h **** * Alternate Active or Sleep). To keep the pins' states, they should be reconfigured or
  65:Generated_Source\PSoC6\pdl\drivers/peripheral/scb/cy_scb_spi.h **** * be frozen.
  66:Generated_Source\PSoC6\pdl\drivers/peripheral/scb/cy_scb_spi.h **** *
  67:Generated_Source\PSoC6\pdl\drivers/peripheral/scb/cy_scb_spi.h **** * \subsection group_scb_spi_clock Assign Clock Divider
  68:Generated_Source\PSoC6\pdl\drivers/peripheral/scb/cy_scb_spi.h **** * The clock source must be connected to the SCB block to oversample input and
  69:Generated_Source\PSoC6\pdl\drivers/peripheral/scb/cy_scb_spi.h **** * output signals. You must use one of the 8-bit or 16-bit dividers <em><b>(the
  70:Generated_Source\PSoC6\pdl\drivers/peripheral/scb/cy_scb_spi.h **** * source clock of this divider must be Clk_Peri)</b></em>. Use the
  71:Generated_Source\PSoC6\pdl\drivers/peripheral/scb/cy_scb_spi.h **** * \ref group_sysclk driver API to do that.
  72:Generated_Source\PSoC6\pdl\drivers/peripheral/scb/cy_scb_spi.h **** *
  73:Generated_Source\PSoC6\pdl\drivers/peripheral/scb/cy_scb_spi.h **** * \snippet SCB_CompDatasheet_sut_01_revA.cydsn\spi_snippets.c SPI_CFG_ASSIGN_CLOCK
  74:Generated_Source\PSoC6\pdl\drivers/peripheral/scb/cy_scb_spi.h **** *
  75:Generated_Source\PSoC6\pdl\drivers/peripheral/scb/cy_scb_spi.h **** * \subsection group_scb_spi_data_rate Configure Data Rate
  76:Generated_Source\PSoC6\pdl\drivers/peripheral/scb/cy_scb_spi.h **** * To get the SPI slave to operate with the desired data rate, the source clock must be
  77:Generated_Source\PSoC6\pdl\drivers/peripheral/scb/cy_scb_spi.h **** * fast enough to provide sufficient oversampling. Therefore, the clock divider
  78:Generated_Source\PSoC6\pdl\drivers/peripheral/scb/cy_scb_spi.h **** * must be configured to provide desired clock frequency. Use the
  79:Generated_Source\PSoC6\pdl\drivers/peripheral/scb/cy_scb_spi.h **** * \ref group_sysclk driver API to do that.
  80:Generated_Source\PSoC6\pdl\drivers/peripheral/scb/cy_scb_spi.h **** *
  81:Generated_Source\PSoC6\pdl\drivers/peripheral/scb/cy_scb_spi.h **** * \snippet SCB_CompDatasheet_sut_01_revA.cydsn\spi_snippets.c SPI_CFG_DATA_RATE_SLAVE
  82:Generated_Source\PSoC6\pdl\drivers/peripheral/scb/cy_scb_spi.h **** *
  83:Generated_Source\PSoC6\pdl\drivers/peripheral/scb/cy_scb_spi.h **** * To get the SPI master to operate with the desired data rate, the source clock frequency
ARM GAS  C:\Users\PC\AppData\Local\Temp\ccXlt19g.s 			page 23


  84:Generated_Source\PSoC6\pdl\drivers/peripheral/scb/cy_scb_spi.h **** * and the SCLK (SPI clock) period must be configured. Use the
  85:Generated_Source\PSoC6\pdl\drivers/peripheral/scb/cy_scb_spi.h **** * \ref group_sysclk driver API to configure source clock frequency. Set the
  86:Generated_Source\PSoC6\pdl\drivers/peripheral/scb/cy_scb_spi.h **** * <em><b>oversample parameter in configuration structure</b></em> to define number of SCB
  87:Generated_Source\PSoC6\pdl\drivers/peripheral/scb/cy_scb_spi.h **** * clocks in one SCLK period. When this value is even, the first and second phases
  88:Generated_Source\PSoC6\pdl\drivers/peripheral/scb/cy_scb_spi.h **** * of the SCLK period are the same. Otherwise, the first phase is one SCB clock
  89:Generated_Source\PSoC6\pdl\drivers/peripheral/scb/cy_scb_spi.h **** * cycle longer than the second phase. The level of the first phase of the clock
  90:Generated_Source\PSoC6\pdl\drivers/peripheral/scb/cy_scb_spi.h **** * period depends on CPOL settings: 0 - low level and 1 - high level.
  91:Generated_Source\PSoC6\pdl\drivers/peripheral/scb/cy_scb_spi.h **** *
  92:Generated_Source\PSoC6\pdl\drivers/peripheral/scb/cy_scb_spi.h **** * \snippet SCB_CompDatasheet_sut_01_revA.cydsn\spi_snippets.c SPI_CFG_DATA_RATE_MASTER
  93:Generated_Source\PSoC6\pdl\drivers/peripheral/scb/cy_scb_spi.h **** *
  94:Generated_Source\PSoC6\pdl\drivers/peripheral/scb/cy_scb_spi.h **** * Refer to the technical reference manual (TRM) section SPI sub-section
  95:Generated_Source\PSoC6\pdl\drivers/peripheral/scb/cy_scb_spi.h **** * Oversampling and Bit Rate to get information about how to configure SPI to run with
  96:Generated_Source\PSoC6\pdl\drivers/peripheral/scb/cy_scb_spi.h **** * desired data rate.
  97:Generated_Source\PSoC6\pdl\drivers/peripheral/scb/cy_scb_spi.h **** *
  98:Generated_Source\PSoC6\pdl\drivers/peripheral/scb/cy_scb_spi.h **** * \subsection group_scb_spi_intr Configure Interrupt
  99:Generated_Source\PSoC6\pdl\drivers/peripheral/scb/cy_scb_spi.h **** * The interrupt is optional for the SPI operation. To configure the interrupt,
 100:Generated_Source\PSoC6\pdl\drivers/peripheral/scb/cy_scb_spi.h **** * the \ref Cy_SCB_SPI_Interrupt function must be called in the interrupt
 101:Generated_Source\PSoC6\pdl\drivers/peripheral/scb/cy_scb_spi.h **** * handler for the selected SCB instance. Also, this interrupt must be enabled
 102:Generated_Source\PSoC6\pdl\drivers/peripheral/scb/cy_scb_spi.h **** * in the NVIC.
 103:Generated_Source\PSoC6\pdl\drivers/peripheral/scb/cy_scb_spi.h **** *
 104:Generated_Source\PSoC6\pdl\drivers/peripheral/scb/cy_scb_spi.h **** * \snippet SCB_CompDatasheet_sut_01_revA.cydsn\spi_snippets.c SPI_INTR_A
 105:Generated_Source\PSoC6\pdl\drivers/peripheral/scb/cy_scb_spi.h **** * \snippet SCB_CompDatasheet_sut_01_revA.cydsn\spi_snippets.c SPI_INTR_B
 106:Generated_Source\PSoC6\pdl\drivers/peripheral/scb/cy_scb_spi.h **** *
 107:Generated_Source\PSoC6\pdl\drivers/peripheral/scb/cy_scb_spi.h **** * \subsection group_scb_spi_enable Enable SPI
 108:Generated_Source\PSoC6\pdl\drivers/peripheral/scb/cy_scb_spi.h **** * Finally, enable the SPI operation calling \ref Cy_SCB_SPI_Enable.
 109:Generated_Source\PSoC6\pdl\drivers/peripheral/scb/cy_scb_spi.h **** * For the slave, this means that SPI device starts respond to the transfers.
 110:Generated_Source\PSoC6\pdl\drivers/peripheral/scb/cy_scb_spi.h **** * For the master, it is ready to execute transfers.
 111:Generated_Source\PSoC6\pdl\drivers/peripheral/scb/cy_scb_spi.h **** *
 112:Generated_Source\PSoC6\pdl\drivers/peripheral/scb/cy_scb_spi.h **** * \snippet SCB_CompDatasheet_sut_01_revA.cydsn\spi_snippets.c SPI_ENABLE
 113:Generated_Source\PSoC6\pdl\drivers/peripheral/scb/cy_scb_spi.h **** *
 114:Generated_Source\PSoC6\pdl\drivers/peripheral/scb/cy_scb_spi.h **** * \section group_scb_spi_use_cases Common Use Cases
 115:Generated_Source\PSoC6\pdl\drivers/peripheral/scb/cy_scb_spi.h **** * The SPI API is the same for the master and slave mode operation and
 116:Generated_Source\PSoC6\pdl\drivers/peripheral/scb/cy_scb_spi.h **** * is divided into two categories: \ref group_scb_spi_low_level_functions
 117:Generated_Source\PSoC6\pdl\drivers/peripheral/scb/cy_scb_spi.h **** * and \ref group_scb_spi_high_level_functions. \n
 118:Generated_Source\PSoC6\pdl\drivers/peripheral/scb/cy_scb_spi.h **** * <em>Do not mix <b>High-Level</b> and <b>Low-Level</b> API because a Low-Level
 119:Generated_Source\PSoC6\pdl\drivers/peripheral/scb/cy_scb_spi.h **** * API can adversely affect the operation of a High-Level API.</em>
 120:Generated_Source\PSoC6\pdl\drivers/peripheral/scb/cy_scb_spi.h **** *
 121:Generated_Source\PSoC6\pdl\drivers/peripheral/scb/cy_scb_spi.h **** * \subsection group_scb_spi_ll Low-Level API
 122:Generated_Source\PSoC6\pdl\drivers/peripheral/scb/cy_scb_spi.h **** * The \ref group_scb_spi_low_level_functions API allows
 123:Generated_Source\PSoC6\pdl\drivers/peripheral/scb/cy_scb_spi.h **** * interacting directly with the hardware and do not use interrupt.
 124:Generated_Source\PSoC6\pdl\drivers/peripheral/scb/cy_scb_spi.h **** * These functions do not require context for operation. Thus, NULL can be
 125:Generated_Source\PSoC6\pdl\drivers/peripheral/scb/cy_scb_spi.h **** * passed in \ref Cy_SCB_SPI_Init and \ref Cy_SCB_SPI_Disable instead of
 126:Generated_Source\PSoC6\pdl\drivers/peripheral/scb/cy_scb_spi.h **** * a pointer to the context structure.
 127:Generated_Source\PSoC6\pdl\drivers/peripheral/scb/cy_scb_spi.h **** *
 128:Generated_Source\PSoC6\pdl\drivers/peripheral/scb/cy_scb_spi.h **** * * To write data into the TX FIFO, use one of the provided functions:
 129:Generated_Source\PSoC6\pdl\drivers/peripheral/scb/cy_scb_spi.h **** *   \ref Cy_SCB_SPI_Write, \ref Cy_SCB_SPI_WriteArray or
 130:Generated_Source\PSoC6\pdl\drivers/peripheral/scb/cy_scb_spi.h **** *   \ref Cy_SCB_SPI_WriteArrayBlocking.
 131:Generated_Source\PSoC6\pdl\drivers/peripheral/scb/cy_scb_spi.h **** *   Note that in the master mode, putting data into the TX FIFO starts a
 132:Generated_Source\PSoC6\pdl\drivers/peripheral/scb/cy_scb_spi.h **** *   transfer. Due to the SPI nature, the received data is put into the RX FIFO.
 133:Generated_Source\PSoC6\pdl\drivers/peripheral/scb/cy_scb_spi.h **** *
 134:Generated_Source\PSoC6\pdl\drivers/peripheral/scb/cy_scb_spi.h **** * * To read data from the RX FIFO, use one of the provided functions:
 135:Generated_Source\PSoC6\pdl\drivers/peripheral/scb/cy_scb_spi.h **** *   \ref Cy_SCB_SPI_Read or \ref Cy_SCB_SPI_ReadArray.
 136:Generated_Source\PSoC6\pdl\drivers/peripheral/scb/cy_scb_spi.h **** *
 137:Generated_Source\PSoC6\pdl\drivers/peripheral/scb/cy_scb_spi.h **** * * The statuses can be polled using: \ref Cy_SCB_SPI_GetRxFifoStatus,
 138:Generated_Source\PSoC6\pdl\drivers/peripheral/scb/cy_scb_spi.h **** *   \ref Cy_SCB_SPI_GetTxFifoStatus and \ref Cy_SCB_SPI_GetSlaveMasterStatus.
 139:Generated_Source\PSoC6\pdl\drivers/peripheral/scb/cy_scb_spi.h **** *   <em>The statuses are <b>W1C (Write 1 to Clear)</b> and after a status
 140:Generated_Source\PSoC6\pdl\drivers/peripheral/scb/cy_scb_spi.h **** *   is set, it must be cleared.</em> Note that there are statuses evaluated as level.
ARM GAS  C:\Users\PC\AppData\Local\Temp\ccXlt19g.s 			page 24


 141:Generated_Source\PSoC6\pdl\drivers/peripheral/scb/cy_scb_spi.h **** *   These statuses remain set until an event is true. Therefore, after the clear
 142:Generated_Source\PSoC6\pdl\drivers/peripheral/scb/cy_scb_spi.h **** *   operation, the status is cleared but then it is restored (if the event is still
 143:Generated_Source\PSoC6\pdl\drivers/peripheral/scb/cy_scb_spi.h **** *   true).
 144:Generated_Source\PSoC6\pdl\drivers/peripheral/scb/cy_scb_spi.h **** *   For example: the TX FIFO empty interrupt source can be cleared when the
 145:Generated_Source\PSoC6\pdl\drivers/peripheral/scb/cy_scb_spi.h **** *   TX FIFO is not empty. Put at least two data elements (one goes to the
 146:Generated_Source\PSoC6\pdl\drivers/peripheral/scb/cy_scb_spi.h **** *   shifter and next to FIFO) before clearing this status. \n
 147:Generated_Source\PSoC6\pdl\drivers/peripheral/scb/cy_scb_spi.h **** *   Also, following functions can be used for polling as well
 148:Generated_Source\PSoC6\pdl\drivers/peripheral/scb/cy_scb_spi.h **** *   \ref Cy_SCB_SPI_IsBusBusy, \ref Cy_SCB_SPI_IsTxComplete,
 149:Generated_Source\PSoC6\pdl\drivers/peripheral/scb/cy_scb_spi.h **** *   \ref Cy_SCB_SPI_GetNumInRxFifo and \ref Cy_SCB_SPI_GetNumInTxFifo.
 150:Generated_Source\PSoC6\pdl\drivers/peripheral/scb/cy_scb_spi.h **** *
 151:Generated_Source\PSoC6\pdl\drivers/peripheral/scb/cy_scb_spi.h **** * \snippet SCB_CompDatasheet_sut_01_revA.cydsn\spi_snippets.c SPI_TRANFER_DATA_LL
 152:Generated_Source\PSoC6\pdl\drivers/peripheral/scb/cy_scb_spi.h **** *
 153:Generated_Source\PSoC6\pdl\drivers/peripheral/scb/cy_scb_spi.h **** * \subsection group_scb_spi_hl High-Level API
 154:Generated_Source\PSoC6\pdl\drivers/peripheral/scb/cy_scb_spi.h **** * The \ref group_scb_spi_high_level_functions API uses an interrupt to execute
 155:Generated_Source\PSoC6\pdl\drivers/peripheral/scb/cy_scb_spi.h **** * a transfer. Call \ref Cy_SCB_SPI_Transfer to start communication: for the
 156:Generated_Source\PSoC6\pdl\drivers/peripheral/scb/cy_scb_spi.h **** * master mode, a transfer to the slave starts but for the slave mode,
 157:Generated_Source\PSoC6\pdl\drivers/peripheral/scb/cy_scb_spi.h **** * the Read and Write buffers are prepared for the following communication
 158:Generated_Source\PSoC6\pdl\drivers/peripheral/scb/cy_scb_spi.h **** * with the master.
 159:Generated_Source\PSoC6\pdl\drivers/peripheral/scb/cy_scb_spi.h **** * After a transfer is started, the \ref Cy_SCB_SPI_Interrupt handles the
 160:Generated_Source\PSoC6\pdl\drivers/peripheral/scb/cy_scb_spi.h **** * transfer until its completion. Therefore, it must be called inside the
 161:Generated_Source\PSoC6\pdl\drivers/peripheral/scb/cy_scb_spi.h **** * user interrupt handler to make the High-Level API work. To monitor the status
 162:Generated_Source\PSoC6\pdl\drivers/peripheral/scb/cy_scb_spi.h **** * of the transfer operation, use \ref Cy_SCB_SPI_GetTransferStatus.
 163:Generated_Source\PSoC6\pdl\drivers/peripheral/scb/cy_scb_spi.h **** * Alternatively, use \ref Cy_SCB_SPI_RegisterCallback to register a callback
 164:Generated_Source\PSoC6\pdl\drivers/peripheral/scb/cy_scb_spi.h **** * function to be notified about \ref group_scb_spi_macros_callback_events.
 165:Generated_Source\PSoC6\pdl\drivers/peripheral/scb/cy_scb_spi.h **** *
 166:Generated_Source\PSoC6\pdl\drivers/peripheral/scb/cy_scb_spi.h **** * \snippet SCB_CompDatasheet_sut_01_revA.cydsn\spi_snippets.c SPI_TRANFER_DATA
 167:Generated_Source\PSoC6\pdl\drivers/peripheral/scb/cy_scb_spi.h **** *
 168:Generated_Source\PSoC6\pdl\drivers/peripheral/scb/cy_scb_spi.h **** * \section group_scb_spi_dma_trig DMA Trigger
 169:Generated_Source\PSoC6\pdl\drivers/peripheral/scb/cy_scb_spi.h **** * The SCB provides TX and RX output trigger signals that can be routed to the
 170:Generated_Source\PSoC6\pdl\drivers/peripheral/scb/cy_scb_spi.h **** * DMA controller inputs. These signals are assigned based on the data availability
 171:Generated_Source\PSoC6\pdl\drivers/peripheral/scb/cy_scb_spi.h **** * in the TX and RX FIFOs appropriately.
 172:Generated_Source\PSoC6\pdl\drivers/peripheral/scb/cy_scb_spi.h **** *
 173:Generated_Source\PSoC6\pdl\drivers/peripheral/scb/cy_scb_spi.h **** * * The RX trigger signal remains active until the number of data
 174:Generated_Source\PSoC6\pdl\drivers/peripheral/scb/cy_scb_spi.h **** *   elements in the RX FIFO is greater than the value of RX FIFO level. Use
 175:Generated_Source\PSoC6\pdl\drivers/peripheral/scb/cy_scb_spi.h **** *   function \ref Cy_SCB_SetRxFifoLevel or set configuration structure
 176:Generated_Source\PSoC6\pdl\drivers/peripheral/scb/cy_scb_spi.h **** *   rxFifoTriggerLevel parameter to configure RX FIFO level value. \n
 177:Generated_Source\PSoC6\pdl\drivers/peripheral/scb/cy_scb_spi.h **** *   <em>For example, the RX FIFO has 8 data elements and the RX FIFO level is 0.
 178:Generated_Source\PSoC6\pdl\drivers/peripheral/scb/cy_scb_spi.h **** *   The RX trigger signal remains active until DMA does not read all data from
 179:Generated_Source\PSoC6\pdl\drivers/peripheral/scb/cy_scb_spi.h **** *   the RX FIFO.</em>
 180:Generated_Source\PSoC6\pdl\drivers/peripheral/scb/cy_scb_spi.h **** *
 181:Generated_Source\PSoC6\pdl\drivers/peripheral/scb/cy_scb_spi.h **** * * The TX trigger signal remains active until the number of data elements
 182:Generated_Source\PSoC6\pdl\drivers/peripheral/scb/cy_scb_spi.h **** *   in the TX FIFO is less than the value of TX FIFO level. Use function
 183:Generated_Source\PSoC6\pdl\drivers/peripheral/scb/cy_scb_spi.h **** *   \ref Cy_SCB_SetTxFifoLevel or set configuration structure txFifoTriggerLevel
 184:Generated_Source\PSoC6\pdl\drivers/peripheral/scb/cy_scb_spi.h **** *   parameter to configure TX FIFO level value. \n
 185:Generated_Source\PSoC6\pdl\drivers/peripheral/scb/cy_scb_spi.h **** *   <em>For example, the TX FIFO has 0 data elements (empty) and the TX FIFO level
 186:Generated_Source\PSoC6\pdl\drivers/peripheral/scb/cy_scb_spi.h **** *   is 7. The TX trigger signal remains active until DMA does not load TX FIFO
 187:Generated_Source\PSoC6\pdl\drivers/peripheral/scb/cy_scb_spi.h **** *   with 7 data elements (note that after the first TX load operation, the data 
 188:Generated_Source\PSoC6\pdl\drivers/peripheral/scb/cy_scb_spi.h **** *   element goes to the shift register and TX FIFO remains empty).</em>
 189:Generated_Source\PSoC6\pdl\drivers/peripheral/scb/cy_scb_spi.h **** *
 190:Generated_Source\PSoC6\pdl\drivers/peripheral/scb/cy_scb_spi.h **** * To route SCB TX or RX trigger signals to the DMA controller, use \ref group_trigmux
 191:Generated_Source\PSoC6\pdl\drivers/peripheral/scb/cy_scb_spi.h **** * driver API.
 192:Generated_Source\PSoC6\pdl\drivers/peripheral/scb/cy_scb_spi.h **** *
 193:Generated_Source\PSoC6\pdl\drivers/peripheral/scb/cy_scb_spi.h **** * \note
 194:Generated_Source\PSoC6\pdl\drivers/peripheral/scb/cy_scb_spi.h **** * To properly handle DMA level request signal activation and de-activation from the SCB
 195:Generated_Source\PSoC6\pdl\drivers/peripheral/scb/cy_scb_spi.h **** * peripheral block the DMA Descriptor typically must be configured to re-trigger
 196:Generated_Source\PSoC6\pdl\drivers/peripheral/scb/cy_scb_spi.h **** * after 16 Clk_Slow cycles.
 197:Generated_Source\PSoC6\pdl\drivers/peripheral/scb/cy_scb_spi.h **** *
ARM GAS  C:\Users\PC\AppData\Local\Temp\ccXlt19g.s 			page 25


 198:Generated_Source\PSoC6\pdl\drivers/peripheral/scb/cy_scb_spi.h **** * \section group_scb_spi_lp Low Power Support
 199:Generated_Source\PSoC6\pdl\drivers/peripheral/scb/cy_scb_spi.h **** * The SPI driver provides the callback functions to handle power mode transition.
 200:Generated_Source\PSoC6\pdl\drivers/peripheral/scb/cy_scb_spi.h **** * The callback \ref Cy_SCB_SPI_DeepSleepCallback must be called
 201:Generated_Source\PSoC6\pdl\drivers/peripheral/scb/cy_scb_spi.h **** * during execution of \ref Cy_SysPm_DeepSleep; \ref Cy_SCB_SPI_HibernateCallback
 202:Generated_Source\PSoC6\pdl\drivers/peripheral/scb/cy_scb_spi.h **** * must be called during execution of \ref Cy_SysPm_Hibernate. To trigger the
 203:Generated_Source\PSoC6\pdl\drivers/peripheral/scb/cy_scb_spi.h **** * callback execution, the callback must be registered before calling the
 204:Generated_Source\PSoC6\pdl\drivers/peripheral/scb/cy_scb_spi.h **** * power mode transition function. Refer to \ref group_syspm driver for more
 205:Generated_Source\PSoC6\pdl\drivers/peripheral/scb/cy_scb_spi.h **** * information about power mode transitions and callback registration.
 206:Generated_Source\PSoC6\pdl\drivers/peripheral/scb/cy_scb_spi.h **** * 
 207:Generated_Source\PSoC6\pdl\drivers/peripheral/scb/cy_scb_spi.h **** * The SPI master is disabled during Deep Sleep and Hibernate and stops driving 
 208:Generated_Source\PSoC6\pdl\drivers/peripheral/scb/cy_scb_spi.h **** * the output pins. The state of the SPI master output pins SCLK, SS, and MOSI is 
 209:Generated_Source\PSoC6\pdl\drivers/peripheral/scb/cy_scb_spi.h **** * High-Z, which can cause unexpected behavior of the SPI Slave due to possible 
 210:Generated_Source\PSoC6\pdl\drivers/peripheral/scb/cy_scb_spi.h **** * glitches on these lines. These pins must be set to the inactive state before 
 211:Generated_Source\PSoC6\pdl\drivers/peripheral/scb/cy_scb_spi.h **** * entering Deep Sleep or Hibernate mode. To do that, configure the SPI master  
 212:Generated_Source\PSoC6\pdl\drivers/peripheral/scb/cy_scb_spi.h **** * pins output to drive the inactive state and High-Speed Input Output 
 213:Generated_Source\PSoC6\pdl\drivers/peripheral/scb/cy_scb_spi.h **** * Multiplexer (HSIOM) to control output by GPIO (use \ref group_gpio 
 214:Generated_Source\PSoC6\pdl\drivers/peripheral/scb/cy_scb_spi.h **** * driver API). The pins configuration must be restored after exiting Deep Sleep 
 215:Generated_Source\PSoC6\pdl\drivers/peripheral/scb/cy_scb_spi.h **** * mode to return the SPI master control of the pins (after exiting Hibernate 
 216:Generated_Source\PSoC6\pdl\drivers/peripheral/scb/cy_scb_spi.h **** * mode, the system init code does the same). 
 217:Generated_Source\PSoC6\pdl\drivers/peripheral/scb/cy_scb_spi.h **** * Note that the SPI master must be enabled to drive the pins during 
 218:Generated_Source\PSoC6\pdl\drivers/peripheral/scb/cy_scb_spi.h **** * configuration change not to cause glitches on the lines. Copy either or 
 219:Generated_Source\PSoC6\pdl\drivers/peripheral/scb/cy_scb_spi.h **** * both \ref Cy_SCB_SPI_DeepSleepCallback and \ref Cy_SCB_SPI_HibernateCallback 
 220:Generated_Source\PSoC6\pdl\drivers/peripheral/scb/cy_scb_spi.h **** * as appropriate, and make the changes described above inside the function.
 221:Generated_Source\PSoC6\pdl\drivers/peripheral/scb/cy_scb_spi.h **** * Alternately, external pull-up or pull-down resistors can be connected 
 222:Generated_Source\PSoC6\pdl\drivers/peripheral/scb/cy_scb_spi.h **** * to the appropriate SPI lines to keep them inactive during Deep-Sleep or 
 223:Generated_Source\PSoC6\pdl\drivers/peripheral/scb/cy_scb_spi.h **** * Hibernate.
 224:Generated_Source\PSoC6\pdl\drivers/peripheral/scb/cy_scb_spi.h **** *
 225:Generated_Source\PSoC6\pdl\drivers/peripheral/scb/cy_scb_spi.h **** * \note
 226:Generated_Source\PSoC6\pdl\drivers/peripheral/scb/cy_scb_spi.h **** * Only applicable for <b>rev-08 of the CY8CKIT-062-BLE</b>.
 227:Generated_Source\PSoC6\pdl\drivers/peripheral/scb/cy_scb_spi.h **** * For proper operation, when the SPI slave is configured to be a wakeup
 228:Generated_Source\PSoC6\pdl\drivers/peripheral/scb/cy_scb_spi.h **** * source from Deep Sleep mode, the \ref Cy_SCB_SPI_DeepSleepCallback must be
 229:Generated_Source\PSoC6\pdl\drivers/peripheral/scb/cy_scb_spi.h **** * copied and modified. Refer to the function description to get the details.
 230:Generated_Source\PSoC6\pdl\drivers/peripheral/scb/cy_scb_spi.h **** *
 231:Generated_Source\PSoC6\pdl\drivers/peripheral/scb/cy_scb_spi.h **** * \section group_scb_spi_more_information More Information
 232:Generated_Source\PSoC6\pdl\drivers/peripheral/scb/cy_scb_spi.h **** * For more information on the SCB peripheral, refer to the technical reference
 233:Generated_Source\PSoC6\pdl\drivers/peripheral/scb/cy_scb_spi.h **** * manual (TRM).
 234:Generated_Source\PSoC6\pdl\drivers/peripheral/scb/cy_scb_spi.h **** *
 235:Generated_Source\PSoC6\pdl\drivers/peripheral/scb/cy_scb_spi.h **** * \section group_scb_spi_MISRA MISRA-C Compliance
 236:Generated_Source\PSoC6\pdl\drivers/peripheral/scb/cy_scb_spi.h **** * <table class="doxtable">
 237:Generated_Source\PSoC6\pdl\drivers/peripheral/scb/cy_scb_spi.h **** *   <tr>
 238:Generated_Source\PSoC6\pdl\drivers/peripheral/scb/cy_scb_spi.h **** *     <th>MISRA Rule</th>
 239:Generated_Source\PSoC6\pdl\drivers/peripheral/scb/cy_scb_spi.h **** *     <th>Rule Class (Required/Advisory)</th>
 240:Generated_Source\PSoC6\pdl\drivers/peripheral/scb/cy_scb_spi.h **** *     <th>Rule Description</th>
 241:Generated_Source\PSoC6\pdl\drivers/peripheral/scb/cy_scb_spi.h **** *     <th>Description of Deviation(s)</th>
 242:Generated_Source\PSoC6\pdl\drivers/peripheral/scb/cy_scb_spi.h **** *   </tr>
 243:Generated_Source\PSoC6\pdl\drivers/peripheral/scb/cy_scb_spi.h **** *   <tr>
 244:Generated_Source\PSoC6\pdl\drivers/peripheral/scb/cy_scb_spi.h **** *     <td>11.4</td>
 245:Generated_Source\PSoC6\pdl\drivers/peripheral/scb/cy_scb_spi.h **** *     <td>A</td>
 246:Generated_Source\PSoC6\pdl\drivers/peripheral/scb/cy_scb_spi.h **** *     <td>A cast should not be performed between a pointer to object type and
 247:Generated_Source\PSoC6\pdl\drivers/peripheral/scb/cy_scb_spi.h **** *         a different pointer to object type.</td>
 248:Generated_Source\PSoC6\pdl\drivers/peripheral/scb/cy_scb_spi.h **** *     <td>
 249:Generated_Source\PSoC6\pdl\drivers/peripheral/scb/cy_scb_spi.h **** *         * The pointer to the buffer memory is void to allow handling
 250:Generated_Source\PSoC6\pdl\drivers/peripheral/scb/cy_scb_spi.h **** *         different data types: uint8_t (4-8 bits) or uint16_t (9-16 bits).
 251:Generated_Source\PSoC6\pdl\drivers/peripheral/scb/cy_scb_spi.h **** *         The cast operation is safe because the configuration is verified
 252:Generated_Source\PSoC6\pdl\drivers/peripheral/scb/cy_scb_spi.h **** *         before operation is performed.
 253:Generated_Source\PSoC6\pdl\drivers/peripheral/scb/cy_scb_spi.h **** *         * The functions \ref Cy_SCB_SPI_DeepSleepCallback and
 254:Generated_Source\PSoC6\pdl\drivers/peripheral/scb/cy_scb_spi.h **** *         \ref Cy_SCB_SPI_HibernateCallback are callback of
ARM GAS  C:\Users\PC\AppData\Local\Temp\ccXlt19g.s 			page 26


 255:Generated_Source\PSoC6\pdl\drivers/peripheral/scb/cy_scb_spi.h **** *         \ref cy_en_syspm_status_t type. The cast operation safety in these
 256:Generated_Source\PSoC6\pdl\drivers/peripheral/scb/cy_scb_spi.h **** *         functions becomes the user's responsibility because pointers are
 257:Generated_Source\PSoC6\pdl\drivers/peripheral/scb/cy_scb_spi.h **** *         initialized when callback is registered in SysPm driver.</td>
 258:Generated_Source\PSoC6\pdl\drivers/peripheral/scb/cy_scb_spi.h **** *   </tr>
 259:Generated_Source\PSoC6\pdl\drivers/peripheral/scb/cy_scb_spi.h **** *   <tr>
 260:Generated_Source\PSoC6\pdl\drivers/peripheral/scb/cy_scb_spi.h **** *     <td>13.7</td>
 261:Generated_Source\PSoC6\pdl\drivers/peripheral/scb/cy_scb_spi.h **** *     <td>R</td>
 262:Generated_Source\PSoC6\pdl\drivers/peripheral/scb/cy_scb_spi.h **** *     <td>Boolean operations whose results are invariant shall not be
 263:Generated_Source\PSoC6\pdl\drivers/peripheral/scb/cy_scb_spi.h **** *         permitted.</td>
 264:Generated_Source\PSoC6\pdl\drivers/peripheral/scb/cy_scb_spi.h **** *     <td>The SCB block parameters can be a constant false or true depends on
 265:Generated_Source\PSoC6\pdl\drivers/peripheral/scb/cy_scb_spi.h **** *         the selected device and cause this violation.</td>
 266:Generated_Source\PSoC6\pdl\drivers/peripheral/scb/cy_scb_spi.h **** *   </tr>
 267:Generated_Source\PSoC6\pdl\drivers/peripheral/scb/cy_scb_spi.h **** *   <tr>
 268:Generated_Source\PSoC6\pdl\drivers/peripheral/scb/cy_scb_spi.h **** *     <td>14.1</td>
 269:Generated_Source\PSoC6\pdl\drivers/peripheral/scb/cy_scb_spi.h **** *     <td>R</td>
 270:Generated_Source\PSoC6\pdl\drivers/peripheral/scb/cy_scb_spi.h **** *     <td>There shall be no unreachable code.</td>
 271:Generated_Source\PSoC6\pdl\drivers/peripheral/scb/cy_scb_spi.h **** *     <td>The SCB block parameters can be a constant false or true depends on
 272:Generated_Source\PSoC6\pdl\drivers/peripheral/scb/cy_scb_spi.h **** *         the selected device and cause code to be unreachable.</td>
 273:Generated_Source\PSoC6\pdl\drivers/peripheral/scb/cy_scb_spi.h **** *   </tr>
 274:Generated_Source\PSoC6\pdl\drivers/peripheral/scb/cy_scb_spi.h **** *   <tr>
 275:Generated_Source\PSoC6\pdl\drivers/peripheral/scb/cy_scb_spi.h **** *     <td>14.2</td>
 276:Generated_Source\PSoC6\pdl\drivers/peripheral/scb/cy_scb_spi.h **** *     <td>R</td>
 277:Generated_Source\PSoC6\pdl\drivers/peripheral/scb/cy_scb_spi.h **** *     <td>All non-null statements shall either: a) have at least one side-effect
 278:Generated_Source\PSoC6\pdl\drivers/peripheral/scb/cy_scb_spi.h **** *         however executed, or b) cause control flow to change.</td>
 279:Generated_Source\PSoC6\pdl\drivers/peripheral/scb/cy_scb_spi.h **** *     <td>The unused function parameters are cast to void. This statement
 280:Generated_Source\PSoC6\pdl\drivers/peripheral/scb/cy_scb_spi.h **** *         has no side-effect and is used to suppress a compiler warning.</td>
 281:Generated_Source\PSoC6\pdl\drivers/peripheral/scb/cy_scb_spi.h **** *   </tr>
 282:Generated_Source\PSoC6\pdl\drivers/peripheral/scb/cy_scb_spi.h **** *   <tr>
 283:Generated_Source\PSoC6\pdl\drivers/peripheral/scb/cy_scb_spi.h **** *     <td>14.7</td>
 284:Generated_Source\PSoC6\pdl\drivers/peripheral/scb/cy_scb_spi.h **** *     <td>R</td>
 285:Generated_Source\PSoC6\pdl\drivers/peripheral/scb/cy_scb_spi.h **** *     <td>A function shall have a single point of exit at the end of the
 286:Generated_Source\PSoC6\pdl\drivers/peripheral/scb/cy_scb_spi.h **** *         function.</td>
 287:Generated_Source\PSoC6\pdl\drivers/peripheral/scb/cy_scb_spi.h **** *     <td>The functions can return from several points. This is done to improve
 288:Generated_Source\PSoC6\pdl\drivers/peripheral/scb/cy_scb_spi.h **** *         code clarity when returning error status code if input parameters
 289:Generated_Source\PSoC6\pdl\drivers/peripheral/scb/cy_scb_spi.h **** *         validation is failed.</td>
 290:Generated_Source\PSoC6\pdl\drivers/peripheral/scb/cy_scb_spi.h **** *   </tr>
 291:Generated_Source\PSoC6\pdl\drivers/peripheral/scb/cy_scb_spi.h **** * </table>
 292:Generated_Source\PSoC6\pdl\drivers/peripheral/scb/cy_scb_spi.h **** *
 293:Generated_Source\PSoC6\pdl\drivers/peripheral/scb/cy_scb_spi.h **** * \section group_scb_spi_changelog Changelog
 294:Generated_Source\PSoC6\pdl\drivers/peripheral/scb/cy_scb_spi.h **** * <table class="doxtable">
 295:Generated_Source\PSoC6\pdl\drivers/peripheral/scb/cy_scb_spi.h **** *   <tr><th>Version</th><th>Changes</th><th>Reason for Change</th></tr>
 296:Generated_Source\PSoC6\pdl\drivers/peripheral/scb/cy_scb_spi.h **** *   <tr>
 297:Generated_Source\PSoC6\pdl\drivers/peripheral/scb/cy_scb_spi.h **** *     <td>2.10</td>
 298:Generated_Source\PSoC6\pdl\drivers/peripheral/scb/cy_scb_spi.h **** *     <td>None.</td>
 299:Generated_Source\PSoC6\pdl\drivers/peripheral/scb/cy_scb_spi.h **** *     <td>SCB I2C driver updated.</td>
 300:Generated_Source\PSoC6\pdl\drivers/peripheral/scb/cy_scb_spi.h **** *   </tr>
 301:Generated_Source\PSoC6\pdl\drivers/peripheral/scb/cy_scb_spi.h **** *   <tr>
 302:Generated_Source\PSoC6\pdl\drivers/peripheral/scb/cy_scb_spi.h **** *     <td rowspan="4"> 2.0</td>
 303:Generated_Source\PSoC6\pdl\drivers/peripheral/scb/cy_scb_spi.h **** *     <td>Fixed SPI callback notification when error event occurred.</td>
 304:Generated_Source\PSoC6\pdl\drivers/peripheral/scb/cy_scb_spi.h **** *     <td>The SPI callback passed incorrect event value if error event occurred.</td>
 305:Generated_Source\PSoC6\pdl\drivers/peripheral/scb/cy_scb_spi.h **** *   </tr>
 306:Generated_Source\PSoC6\pdl\drivers/peripheral/scb/cy_scb_spi.h **** *   <tr>
 307:Generated_Source\PSoC6\pdl\drivers/peripheral/scb/cy_scb_spi.h **** *     <td>Added parameters validation for public API.</td>
 308:Generated_Source\PSoC6\pdl\drivers/peripheral/scb/cy_scb_spi.h **** *     <td></td>
 309:Generated_Source\PSoC6\pdl\drivers/peripheral/scb/cy_scb_spi.h **** *   </tr>
 310:Generated_Source\PSoC6\pdl\drivers/peripheral/scb/cy_scb_spi.h **** *   <tr>
 311:Generated_Source\PSoC6\pdl\drivers/peripheral/scb/cy_scb_spi.h **** *     <td>Replaced variables that have limited range of values with enumerated
ARM GAS  C:\Users\PC\AppData\Local\Temp\ccXlt19g.s 			page 27


 312:Generated_Source\PSoC6\pdl\drivers/peripheral/scb/cy_scb_spi.h **** *         types.</td>
 313:Generated_Source\PSoC6\pdl\drivers/peripheral/scb/cy_scb_spi.h **** *     <td></td>
 314:Generated_Source\PSoC6\pdl\drivers/peripheral/scb/cy_scb_spi.h **** *   </tr>
 315:Generated_Source\PSoC6\pdl\drivers/peripheral/scb/cy_scb_spi.h **** *   <tr>
 316:Generated_Source\PSoC6\pdl\drivers/peripheral/scb/cy_scb_spi.h **** *     <td>Added missing "cy_cb_" to the callback function type names.</td>
 317:Generated_Source\PSoC6\pdl\drivers/peripheral/scb/cy_scb_spi.h **** *     <td></td>
 318:Generated_Source\PSoC6\pdl\drivers/peripheral/scb/cy_scb_spi.h **** *   </tr>
 319:Generated_Source\PSoC6\pdl\drivers/peripheral/scb/cy_scb_spi.h **** *   <tr>
 320:Generated_Source\PSoC6\pdl\drivers/peripheral/scb/cy_scb_spi.h **** *     <td>1.0</td>
 321:Generated_Source\PSoC6\pdl\drivers/peripheral/scb/cy_scb_spi.h **** *     <td>Initial version.</td>
 322:Generated_Source\PSoC6\pdl\drivers/peripheral/scb/cy_scb_spi.h **** *     <td></td>
 323:Generated_Source\PSoC6\pdl\drivers/peripheral/scb/cy_scb_spi.h **** *   </tr>
 324:Generated_Source\PSoC6\pdl\drivers/peripheral/scb/cy_scb_spi.h **** * </table>
 325:Generated_Source\PSoC6\pdl\drivers/peripheral/scb/cy_scb_spi.h **** *
 326:Generated_Source\PSoC6\pdl\drivers/peripheral/scb/cy_scb_spi.h **** * \defgroup group_scb_spi_macros Macros
 327:Generated_Source\PSoC6\pdl\drivers/peripheral/scb/cy_scb_spi.h **** * \defgroup group_scb_spi_functions Functions
 328:Generated_Source\PSoC6\pdl\drivers/peripheral/scb/cy_scb_spi.h **** * \{
 329:Generated_Source\PSoC6\pdl\drivers/peripheral/scb/cy_scb_spi.h **** * \defgroup group_scb_spi_general_functions General
 330:Generated_Source\PSoC6\pdl\drivers/peripheral/scb/cy_scb_spi.h **** * \defgroup group_scb_spi_high_level_functions High-Level
 331:Generated_Source\PSoC6\pdl\drivers/peripheral/scb/cy_scb_spi.h **** * \defgroup group_scb_spi_low_level_functions Low-Level
 332:Generated_Source\PSoC6\pdl\drivers/peripheral/scb/cy_scb_spi.h **** * \defgroup group_scb_spi_interrupt_functions Interrupt
 333:Generated_Source\PSoC6\pdl\drivers/peripheral/scb/cy_scb_spi.h **** * \defgroup group_scb_spi_low_power_functions Low Power Callbacks
 334:Generated_Source\PSoC6\pdl\drivers/peripheral/scb/cy_scb_spi.h **** * \}
 335:Generated_Source\PSoC6\pdl\drivers/peripheral/scb/cy_scb_spi.h **** * \defgroup group_scb_spi_data_structures Data Structures
 336:Generated_Source\PSoC6\pdl\drivers/peripheral/scb/cy_scb_spi.h **** * \defgroup group_scb_spi_enums Enumerated Types
 337:Generated_Source\PSoC6\pdl\drivers/peripheral/scb/cy_scb_spi.h **** */
 338:Generated_Source\PSoC6\pdl\drivers/peripheral/scb/cy_scb_spi.h **** 
 339:Generated_Source\PSoC6\pdl\drivers/peripheral/scb/cy_scb_spi.h **** #if !defined(CY_SCB_SPI_H)
 340:Generated_Source\PSoC6\pdl\drivers/peripheral/scb/cy_scb_spi.h **** #define CY_SCB_SPI_H
 341:Generated_Source\PSoC6\pdl\drivers/peripheral/scb/cy_scb_spi.h **** 
 342:Generated_Source\PSoC6\pdl\drivers/peripheral/scb/cy_scb_spi.h **** #include "cy_scb_common.h"
 343:Generated_Source\PSoC6\pdl\drivers/peripheral/scb/cy_scb_spi.h **** 
 344:Generated_Source\PSoC6\pdl\drivers/peripheral/scb/cy_scb_spi.h **** #if defined(__cplusplus)
 345:Generated_Source\PSoC6\pdl\drivers/peripheral/scb/cy_scb_spi.h **** extern "C" {
 346:Generated_Source\PSoC6\pdl\drivers/peripheral/scb/cy_scb_spi.h **** #endif
 347:Generated_Source\PSoC6\pdl\drivers/peripheral/scb/cy_scb_spi.h **** 
 348:Generated_Source\PSoC6\pdl\drivers/peripheral/scb/cy_scb_spi.h **** /***************************************
 349:Generated_Source\PSoC6\pdl\drivers/peripheral/scb/cy_scb_spi.h **** *          Enumerated Types
 350:Generated_Source\PSoC6\pdl\drivers/peripheral/scb/cy_scb_spi.h **** ***************************************/
 351:Generated_Source\PSoC6\pdl\drivers/peripheral/scb/cy_scb_spi.h **** 
 352:Generated_Source\PSoC6\pdl\drivers/peripheral/scb/cy_scb_spi.h **** /**
 353:Generated_Source\PSoC6\pdl\drivers/peripheral/scb/cy_scb_spi.h **** * \addtogroup group_scb_spi_enums
 354:Generated_Source\PSoC6\pdl\drivers/peripheral/scb/cy_scb_spi.h **** * \{
 355:Generated_Source\PSoC6\pdl\drivers/peripheral/scb/cy_scb_spi.h **** */
 356:Generated_Source\PSoC6\pdl\drivers/peripheral/scb/cy_scb_spi.h **** 
 357:Generated_Source\PSoC6\pdl\drivers/peripheral/scb/cy_scb_spi.h **** /** SPI status codes */
 358:Generated_Source\PSoC6\pdl\drivers/peripheral/scb/cy_scb_spi.h **** typedef enum
 359:Generated_Source\PSoC6\pdl\drivers/peripheral/scb/cy_scb_spi.h **** {
 360:Generated_Source\PSoC6\pdl\drivers/peripheral/scb/cy_scb_spi.h ****     /** Operation completed successfully */
 361:Generated_Source\PSoC6\pdl\drivers/peripheral/scb/cy_scb_spi.h ****     CY_SCB_SPI_SUCCESS = 0U,
 362:Generated_Source\PSoC6\pdl\drivers/peripheral/scb/cy_scb_spi.h **** 
 363:Generated_Source\PSoC6\pdl\drivers/peripheral/scb/cy_scb_spi.h ****     /** One or more of input parameters are invalid */
 364:Generated_Source\PSoC6\pdl\drivers/peripheral/scb/cy_scb_spi.h ****     CY_SCB_SPI_BAD_PARAM = (CY_SCB_ID | CY_PDL_STATUS_ERROR | CY_SCB_SPI_ID | 1U),
 365:Generated_Source\PSoC6\pdl\drivers/peripheral/scb/cy_scb_spi.h **** 
 366:Generated_Source\PSoC6\pdl\drivers/peripheral/scb/cy_scb_spi.h ****     /**
 367:Generated_Source\PSoC6\pdl\drivers/peripheral/scb/cy_scb_spi.h ****     * The SPI is busy processing a transfer. Call \ref Cy_SCB_SPI_Transfer
 368:Generated_Source\PSoC6\pdl\drivers/peripheral/scb/cy_scb_spi.h ****     * function again once that transfer is completed or aborted.
ARM GAS  C:\Users\PC\AppData\Local\Temp\ccXlt19g.s 			page 28


 369:Generated_Source\PSoC6\pdl\drivers/peripheral/scb/cy_scb_spi.h ****     */
 370:Generated_Source\PSoC6\pdl\drivers/peripheral/scb/cy_scb_spi.h ****     CY_SCB_SPI_TRANSFER_BUSY = (CY_SCB_ID | CY_PDL_STATUS_ERROR | CY_SCB_SPI_ID | 2U)
 371:Generated_Source\PSoC6\pdl\drivers/peripheral/scb/cy_scb_spi.h **** } cy_en_scb_spi_status_t;
 372:Generated_Source\PSoC6\pdl\drivers/peripheral/scb/cy_scb_spi.h **** 
 373:Generated_Source\PSoC6\pdl\drivers/peripheral/scb/cy_scb_spi.h **** /** SPI Modes */
 374:Generated_Source\PSoC6\pdl\drivers/peripheral/scb/cy_scb_spi.h **** typedef enum
 375:Generated_Source\PSoC6\pdl\drivers/peripheral/scb/cy_scb_spi.h **** {
 376:Generated_Source\PSoC6\pdl\drivers/peripheral/scb/cy_scb_spi.h ****     CY_SCB_SPI_SLAVE,   /**< Configures SCB for SPI Slave operation  */
 377:Generated_Source\PSoC6\pdl\drivers/peripheral/scb/cy_scb_spi.h ****     CY_SCB_SPI_MASTER,  /**< Configures SCB for SPI Master operation */
 378:Generated_Source\PSoC6\pdl\drivers/peripheral/scb/cy_scb_spi.h **** } cy_en_scb_spi_mode_t;
 379:Generated_Source\PSoC6\pdl\drivers/peripheral/scb/cy_scb_spi.h **** 
 380:Generated_Source\PSoC6\pdl\drivers/peripheral/scb/cy_scb_spi.h **** /** SPI Submodes */
 381:Generated_Source\PSoC6\pdl\drivers/peripheral/scb/cy_scb_spi.h **** typedef enum
 382:Generated_Source\PSoC6\pdl\drivers/peripheral/scb/cy_scb_spi.h **** {
 383:Generated_Source\PSoC6\pdl\drivers/peripheral/scb/cy_scb_spi.h ****     /** Configures an SPI for a standard Motorola SPI operation */
 384:Generated_Source\PSoC6\pdl\drivers/peripheral/scb/cy_scb_spi.h ****     CY_SCB_SPI_MOTOROLA     = 0x0U,
 385:Generated_Source\PSoC6\pdl\drivers/peripheral/scb/cy_scb_spi.h **** 
 386:Generated_Source\PSoC6\pdl\drivers/peripheral/scb/cy_scb_spi.h ****     /**
 387:Generated_Source\PSoC6\pdl\drivers/peripheral/scb/cy_scb_spi.h ****     * Configures the SPI for the TI SPI operation. In the TI mode, the slave
 388:Generated_Source\PSoC6\pdl\drivers/peripheral/scb/cy_scb_spi.h ****     * select is a pulse. In this case, the pulse coincides with the first bit.
 389:Generated_Source\PSoC6\pdl\drivers/peripheral/scb/cy_scb_spi.h ****     */
 390:Generated_Source\PSoC6\pdl\drivers/peripheral/scb/cy_scb_spi.h ****     CY_SCB_SPI_TI_COINCIDES = 0x01U,
 391:Generated_Source\PSoC6\pdl\drivers/peripheral/scb/cy_scb_spi.h **** 
 392:Generated_Source\PSoC6\pdl\drivers/peripheral/scb/cy_scb_spi.h ****     /**
 393:Generated_Source\PSoC6\pdl\drivers/peripheral/scb/cy_scb_spi.h ****     * Configures an SPI for the National SPI operation. This is a half-duplex
 394:Generated_Source\PSoC6\pdl\drivers/peripheral/scb/cy_scb_spi.h ****     * mode of operation.
 395:Generated_Source\PSoC6\pdl\drivers/peripheral/scb/cy_scb_spi.h ****     */
 396:Generated_Source\PSoC6\pdl\drivers/peripheral/scb/cy_scb_spi.h ****     CY_SCB_SPI_NATIONAL     = 0x02U,
 397:Generated_Source\PSoC6\pdl\drivers/peripheral/scb/cy_scb_spi.h **** 
 398:Generated_Source\PSoC6\pdl\drivers/peripheral/scb/cy_scb_spi.h ****     /**
 399:Generated_Source\PSoC6\pdl\drivers/peripheral/scb/cy_scb_spi.h ****     * Configures an SPI for the TI SPI operation, in the TI mode. The slave
 400:Generated_Source\PSoC6\pdl\drivers/peripheral/scb/cy_scb_spi.h ****     * select is a pulse. In this case the pulse precedes the first bit.
 401:Generated_Source\PSoC6\pdl\drivers/peripheral/scb/cy_scb_spi.h ****     */
 402:Generated_Source\PSoC6\pdl\drivers/peripheral/scb/cy_scb_spi.h ****     CY_SCB_SPI_TI_PRECEDES  = 0x05U,
 403:Generated_Source\PSoC6\pdl\drivers/peripheral/scb/cy_scb_spi.h **** } cy_en_scb_spi_sub_mode_t;
 404:Generated_Source\PSoC6\pdl\drivers/peripheral/scb/cy_scb_spi.h **** 
 405:Generated_Source\PSoC6\pdl\drivers/peripheral/scb/cy_scb_spi.h **** /** SPI SCLK Modes */
 406:Generated_Source\PSoC6\pdl\drivers/peripheral/scb/cy_scb_spi.h **** typedef enum
 407:Generated_Source\PSoC6\pdl\drivers/peripheral/scb/cy_scb_spi.h **** {
 408:Generated_Source\PSoC6\pdl\drivers/peripheral/scb/cy_scb_spi.h ****     CY_SCB_SPI_CPHA0_CPOL0 = 0U,   /**< Clock is active low, data is changed on first edge   */
 409:Generated_Source\PSoC6\pdl\drivers/peripheral/scb/cy_scb_spi.h ****     CY_SCB_SPI_CPHA0_CPOL1 = 1U,   /**< Clock is active high, data is changed on first edge  */
 410:Generated_Source\PSoC6\pdl\drivers/peripheral/scb/cy_scb_spi.h ****     CY_SCB_SPI_CPHA1_CPOL0 = 2U,   /**< Clock is active low, data is changed on second edge  */
 411:Generated_Source\PSoC6\pdl\drivers/peripheral/scb/cy_scb_spi.h ****     CY_SCB_SPI_CPHA1_CPOL1 = 3U,   /**< Clock is active high, data is changed on second edge */
 412:Generated_Source\PSoC6\pdl\drivers/peripheral/scb/cy_scb_spi.h **** } cy_en_scb_spi_sclk_mode_t;
 413:Generated_Source\PSoC6\pdl\drivers/peripheral/scb/cy_scb_spi.h **** 
 414:Generated_Source\PSoC6\pdl\drivers/peripheral/scb/cy_scb_spi.h **** /** SPI Slave Selects */
 415:Generated_Source\PSoC6\pdl\drivers/peripheral/scb/cy_scb_spi.h **** typedef enum
 416:Generated_Source\PSoC6\pdl\drivers/peripheral/scb/cy_scb_spi.h **** {
 417:Generated_Source\PSoC6\pdl\drivers/peripheral/scb/cy_scb_spi.h ****     CY_SCB_SPI_SLAVE_SELECT0 = 0U,   /**< Master will use Slave Select 0 */
 418:Generated_Source\PSoC6\pdl\drivers/peripheral/scb/cy_scb_spi.h ****     CY_SCB_SPI_SLAVE_SELECT1 = 1U,   /**< Master will use Slave Select 1 */
 419:Generated_Source\PSoC6\pdl\drivers/peripheral/scb/cy_scb_spi.h ****     CY_SCB_SPI_SLAVE_SELECT2 = 2U,   /**< Master will use Slave Select 2 */
 420:Generated_Source\PSoC6\pdl\drivers/peripheral/scb/cy_scb_spi.h ****     CY_SCB_SPI_SLAVE_SELECT3 = 3U,   /**< Master will use Slave Select 3 */
 421:Generated_Source\PSoC6\pdl\drivers/peripheral/scb/cy_scb_spi.h **** } cy_en_scb_spi_slave_select_t;
 422:Generated_Source\PSoC6\pdl\drivers/peripheral/scb/cy_scb_spi.h **** 
 423:Generated_Source\PSoC6\pdl\drivers/peripheral/scb/cy_scb_spi.h **** /** SPI Polarity */
 424:Generated_Source\PSoC6\pdl\drivers/peripheral/scb/cy_scb_spi.h **** typedef enum
 425:Generated_Source\PSoC6\pdl\drivers/peripheral/scb/cy_scb_spi.h **** {
ARM GAS  C:\Users\PC\AppData\Local\Temp\ccXlt19g.s 			page 29


 426:Generated_Source\PSoC6\pdl\drivers/peripheral/scb/cy_scb_spi.h ****     CY_SCB_SPI_ACTIVE_LOW  = 0U,    /**< Signal in question is active low */
 427:Generated_Source\PSoC6\pdl\drivers/peripheral/scb/cy_scb_spi.h ****     CY_SCB_SPI_ACTIVE_HIGH = 1U,    /**< Signal in question is active high */
 428:Generated_Source\PSoC6\pdl\drivers/peripheral/scb/cy_scb_spi.h **** } cy_en_scb_spi_polarity_t;
 429:Generated_Source\PSoC6\pdl\drivers/peripheral/scb/cy_scb_spi.h **** 
 430:Generated_Source\PSoC6\pdl\drivers/peripheral/scb/cy_scb_spi.h **** /** \} group_scb_spi_enums */
 431:Generated_Source\PSoC6\pdl\drivers/peripheral/scb/cy_scb_spi.h **** 
 432:Generated_Source\PSoC6\pdl\drivers/peripheral/scb/cy_scb_spi.h **** 
 433:Generated_Source\PSoC6\pdl\drivers/peripheral/scb/cy_scb_spi.h **** /***************************************
 434:Generated_Source\PSoC6\pdl\drivers/peripheral/scb/cy_scb_spi.h **** *       Type Definitions
 435:Generated_Source\PSoC6\pdl\drivers/peripheral/scb/cy_scb_spi.h **** ***************************************/
 436:Generated_Source\PSoC6\pdl\drivers/peripheral/scb/cy_scb_spi.h **** 
 437:Generated_Source\PSoC6\pdl\drivers/peripheral/scb/cy_scb_spi.h **** /**
 438:Generated_Source\PSoC6\pdl\drivers/peripheral/scb/cy_scb_spi.h **** * \addtogroup group_scb_spi_data_structures
 439:Generated_Source\PSoC6\pdl\drivers/peripheral/scb/cy_scb_spi.h **** * \{
 440:Generated_Source\PSoC6\pdl\drivers/peripheral/scb/cy_scb_spi.h **** */
 441:Generated_Source\PSoC6\pdl\drivers/peripheral/scb/cy_scb_spi.h **** 
 442:Generated_Source\PSoC6\pdl\drivers/peripheral/scb/cy_scb_spi.h **** /**
 443:Generated_Source\PSoC6\pdl\drivers/peripheral/scb/cy_scb_spi.h **** * Provides the typedef for the callback function called in the
 444:Generated_Source\PSoC6\pdl\drivers/peripheral/scb/cy_scb_spi.h **** * \ref Cy_SCB_SPI_Interrupt to notify the user about occurrences of
 445:Generated_Source\PSoC6\pdl\drivers/peripheral/scb/cy_scb_spi.h **** * \ref group_scb_spi_macros_callback_events.
 446:Generated_Source\PSoC6\pdl\drivers/peripheral/scb/cy_scb_spi.h **** */
 447:Generated_Source\PSoC6\pdl\drivers/peripheral/scb/cy_scb_spi.h **** typedef void (* cy_cb_scb_spi_handle_events_t)(uint32_t event);
 448:Generated_Source\PSoC6\pdl\drivers/peripheral/scb/cy_scb_spi.h **** 
 449:Generated_Source\PSoC6\pdl\drivers/peripheral/scb/cy_scb_spi.h **** 
 450:Generated_Source\PSoC6\pdl\drivers/peripheral/scb/cy_scb_spi.h **** /** SPI configuration structure */
 451:Generated_Source\PSoC6\pdl\drivers/peripheral/scb/cy_scb_spi.h **** typedef struct cy_stc_scb_spi_config
 452:Generated_Source\PSoC6\pdl\drivers/peripheral/scb/cy_scb_spi.h **** {
 453:Generated_Source\PSoC6\pdl\drivers/peripheral/scb/cy_scb_spi.h ****     /** Specifies the mode of operation */
 454:Generated_Source\PSoC6\pdl\drivers/peripheral/scb/cy_scb_spi.h ****     cy_en_scb_spi_mode_t    spiMode;
 455:Generated_Source\PSoC6\pdl\drivers/peripheral/scb/cy_scb_spi.h **** 
 456:Generated_Source\PSoC6\pdl\drivers/peripheral/scb/cy_scb_spi.h ****     /** Specifies the submode of SPI operation */
 457:Generated_Source\PSoC6\pdl\drivers/peripheral/scb/cy_scb_spi.h ****     cy_en_scb_spi_sub_mode_t    subMode;
 458:Generated_Source\PSoC6\pdl\drivers/peripheral/scb/cy_scb_spi.h **** 
 459:Generated_Source\PSoC6\pdl\drivers/peripheral/scb/cy_scb_spi.h ****     /**
 460:Generated_Source\PSoC6\pdl\drivers/peripheral/scb/cy_scb_spi.h ****     * Configures the SCLK operation for Motorola sub-mode, ignored for all
 461:Generated_Source\PSoC6\pdl\drivers/peripheral/scb/cy_scb_spi.h ****     * other submodes
 462:Generated_Source\PSoC6\pdl\drivers/peripheral/scb/cy_scb_spi.h ****     */
 463:Generated_Source\PSoC6\pdl\drivers/peripheral/scb/cy_scb_spi.h ****     cy_en_scb_spi_sclk_mode_t    sclkMode;
 464:Generated_Source\PSoC6\pdl\drivers/peripheral/scb/cy_scb_spi.h **** 
 465:Generated_Source\PSoC6\pdl\drivers/peripheral/scb/cy_scb_spi.h ****     /**
 466:Generated_Source\PSoC6\pdl\drivers/peripheral/scb/cy_scb_spi.h ****     * Oversample factor for SPI.
 467:Generated_Source\PSoC6\pdl\drivers/peripheral/scb/cy_scb_spi.h ****     * * For the master mode, the data rate is the SCB clock / oversample
 468:Generated_Source\PSoC6\pdl\drivers/peripheral/scb/cy_scb_spi.h ****     *   (valid range is 4-16).
 469:Generated_Source\PSoC6\pdl\drivers/peripheral/scb/cy_scb_spi.h ****     * * For the slave mode, the oversample value is ignored. The data rate is
 470:Generated_Source\PSoC6\pdl\drivers/peripheral/scb/cy_scb_spi.h ****     *   determined by the SCB clock frequency. See the device datasheet for
 471:Generated_Source\PSoC6\pdl\drivers/peripheral/scb/cy_scb_spi.h ****     *   more details.
 472:Generated_Source\PSoC6\pdl\drivers/peripheral/scb/cy_scb_spi.h ****     */
 473:Generated_Source\PSoC6\pdl\drivers/peripheral/scb/cy_scb_spi.h ****     uint32_t    oversample;
 474:Generated_Source\PSoC6\pdl\drivers/peripheral/scb/cy_scb_spi.h **** 
 475:Generated_Source\PSoC6\pdl\drivers/peripheral/scb/cy_scb_spi.h ****     /**
 476:Generated_Source\PSoC6\pdl\drivers/peripheral/scb/cy_scb_spi.h ****     * The width of RX data (valid range 4-16). It must be the same as
 477:Generated_Source\PSoC6\pdl\drivers/peripheral/scb/cy_scb_spi.h ****     * \ref txDataWidth except in National sub-mode.
 478:Generated_Source\PSoC6\pdl\drivers/peripheral/scb/cy_scb_spi.h ****     */
 479:Generated_Source\PSoC6\pdl\drivers/peripheral/scb/cy_scb_spi.h ****     uint32_t    rxDataWidth;
 480:Generated_Source\PSoC6\pdl\drivers/peripheral/scb/cy_scb_spi.h **** 
 481:Generated_Source\PSoC6\pdl\drivers/peripheral/scb/cy_scb_spi.h ****     /**
 482:Generated_Source\PSoC6\pdl\drivers/peripheral/scb/cy_scb_spi.h ****     * The width of TX data (valid range 4-16). It must be the same as
ARM GAS  C:\Users\PC\AppData\Local\Temp\ccXlt19g.s 			page 30


 483:Generated_Source\PSoC6\pdl\drivers/peripheral/scb/cy_scb_spi.h ****     * \ref rxDataWidth except in National sub-mode.
 484:Generated_Source\PSoC6\pdl\drivers/peripheral/scb/cy_scb_spi.h ****     */
 485:Generated_Source\PSoC6\pdl\drivers/peripheral/scb/cy_scb_spi.h ****     uint32_t    txDataWidth;
 486:Generated_Source\PSoC6\pdl\drivers/peripheral/scb/cy_scb_spi.h **** 
 487:Generated_Source\PSoC6\pdl\drivers/peripheral/scb/cy_scb_spi.h ****     /**
 488:Generated_Source\PSoC6\pdl\drivers/peripheral/scb/cy_scb_spi.h ****     * Enables the hardware to shift out the data element MSB first, otherwise,
 489:Generated_Source\PSoC6\pdl\drivers/peripheral/scb/cy_scb_spi.h ****     * LSB first
 490:Generated_Source\PSoC6\pdl\drivers/peripheral/scb/cy_scb_spi.h ****     */
 491:Generated_Source\PSoC6\pdl\drivers/peripheral/scb/cy_scb_spi.h ****     bool        enableMsbFirst;
 492:Generated_Source\PSoC6\pdl\drivers/peripheral/scb/cy_scb_spi.h **** 
 493:Generated_Source\PSoC6\pdl\drivers/peripheral/scb/cy_scb_spi.h ****     /**
 494:Generated_Source\PSoC6\pdl\drivers/peripheral/scb/cy_scb_spi.h ****     * Enables the master to generate a continuous SCLK regardless of whether
 495:Generated_Source\PSoC6\pdl\drivers/peripheral/scb/cy_scb_spi.h ****     * there is data to send
 496:Generated_Source\PSoC6\pdl\drivers/peripheral/scb/cy_scb_spi.h ****     */
 497:Generated_Source\PSoC6\pdl\drivers/peripheral/scb/cy_scb_spi.h ****     bool        enableFreeRunSclk;
 498:Generated_Source\PSoC6\pdl\drivers/peripheral/scb/cy_scb_spi.h **** 
 499:Generated_Source\PSoC6\pdl\drivers/peripheral/scb/cy_scb_spi.h ****     /**
 500:Generated_Source\PSoC6\pdl\drivers/peripheral/scb/cy_scb_spi.h ****     * Enables a digital 3-tap median filter to be applied to the input
 501:Generated_Source\PSoC6\pdl\drivers/peripheral/scb/cy_scb_spi.h ****     * of the RX FIFO to filter glitches on the line.
 502:Generated_Source\PSoC6\pdl\drivers/peripheral/scb/cy_scb_spi.h ****     */
 503:Generated_Source\PSoC6\pdl\drivers/peripheral/scb/cy_scb_spi.h ****     bool        enableInputFilter;
 504:Generated_Source\PSoC6\pdl\drivers/peripheral/scb/cy_scb_spi.h **** 
 505:Generated_Source\PSoC6\pdl\drivers/peripheral/scb/cy_scb_spi.h ****     /**
 506:Generated_Source\PSoC6\pdl\drivers/peripheral/scb/cy_scb_spi.h ****     * Enables the master to sample MISO line one half clock later to allow
 507:Generated_Source\PSoC6\pdl\drivers/peripheral/scb/cy_scb_spi.h ****     * better timings.
 508:Generated_Source\PSoC6\pdl\drivers/peripheral/scb/cy_scb_spi.h ****     */
 509:Generated_Source\PSoC6\pdl\drivers/peripheral/scb/cy_scb_spi.h ****     bool        enableMisoLateSample;
 510:Generated_Source\PSoC6\pdl\drivers/peripheral/scb/cy_scb_spi.h **** 
 511:Generated_Source\PSoC6\pdl\drivers/peripheral/scb/cy_scb_spi.h ****     /**
 512:Generated_Source\PSoC6\pdl\drivers/peripheral/scb/cy_scb_spi.h ****     * Enables the master to transmit each data element separated by a
 513:Generated_Source\PSoC6\pdl\drivers/peripheral/scb/cy_scb_spi.h ****     * de-assertion of the slave select line (only applicable for the master
 514:Generated_Source\PSoC6\pdl\drivers/peripheral/scb/cy_scb_spi.h ****     * mode)
 515:Generated_Source\PSoC6\pdl\drivers/peripheral/scb/cy_scb_spi.h ****     */
 516:Generated_Source\PSoC6\pdl\drivers/peripheral/scb/cy_scb_spi.h ****     bool        enableTransferSeperation;
 517:Generated_Source\PSoC6\pdl\drivers/peripheral/scb/cy_scb_spi.h **** 
 518:Generated_Source\PSoC6\pdl\drivers/peripheral/scb/cy_scb_spi.h ****     /**
 519:Generated_Source\PSoC6\pdl\drivers/peripheral/scb/cy_scb_spi.h ****     * Sets active polarity of each SS line.
 520:Generated_Source\PSoC6\pdl\drivers/peripheral/scb/cy_scb_spi.h ****     * This is a bit mask: bit 0 corresponds to SS0 and so on to SS3.
 521:Generated_Source\PSoC6\pdl\drivers/peripheral/scb/cy_scb_spi.h ****     * 1 means active high, a 0 means active low.
 522:Generated_Source\PSoC6\pdl\drivers/peripheral/scb/cy_scb_spi.h ****     */
 523:Generated_Source\PSoC6\pdl\drivers/peripheral/scb/cy_scb_spi.h ****     uint32_t    ssPolarity;
 524:Generated_Source\PSoC6\pdl\drivers/peripheral/scb/cy_scb_spi.h **** 
 525:Generated_Source\PSoC6\pdl\drivers/peripheral/scb/cy_scb_spi.h ****     /**
 526:Generated_Source\PSoC6\pdl\drivers/peripheral/scb/cy_scb_spi.h ****     * When set, the slave will wake the device when the slave select line
 527:Generated_Source\PSoC6\pdl\drivers/peripheral/scb/cy_scb_spi.h ****     * becomes active.
 528:Generated_Source\PSoC6\pdl\drivers/peripheral/scb/cy_scb_spi.h ****     * Note that not all SCBs support this mode. Consult the device
 529:Generated_Source\PSoC6\pdl\drivers/peripheral/scb/cy_scb_spi.h ****     * datasheet to determine which SCBs support wake from Deep Sleep.
 530:Generated_Source\PSoC6\pdl\drivers/peripheral/scb/cy_scb_spi.h ****     */
 531:Generated_Source\PSoC6\pdl\drivers/peripheral/scb/cy_scb_spi.h ****     bool        enableWakeFromSleep;
 532:Generated_Source\PSoC6\pdl\drivers/peripheral/scb/cy_scb_spi.h **** 
 533:Generated_Source\PSoC6\pdl\drivers/peripheral/scb/cy_scb_spi.h ****     /**
 534:Generated_Source\PSoC6\pdl\drivers/peripheral/scb/cy_scb_spi.h ****     * When there are more entries in the RX FIFO, then at this level
 535:Generated_Source\PSoC6\pdl\drivers/peripheral/scb/cy_scb_spi.h ****     * the RX trigger output goes high. This output can be connected
 536:Generated_Source\PSoC6\pdl\drivers/peripheral/scb/cy_scb_spi.h ****     * to a DMA channel through a trigger mux.
 537:Generated_Source\PSoC6\pdl\drivers/peripheral/scb/cy_scb_spi.h ****     * Also, it controls the \ref CY_SCB_SPI_RX_TRIGGER interrupt source.
 538:Generated_Source\PSoC6\pdl\drivers/peripheral/scb/cy_scb_spi.h ****     */
 539:Generated_Source\PSoC6\pdl\drivers/peripheral/scb/cy_scb_spi.h ****     uint32_t    rxFifoTriggerLevel;
ARM GAS  C:\Users\PC\AppData\Local\Temp\ccXlt19g.s 			page 31


 540:Generated_Source\PSoC6\pdl\drivers/peripheral/scb/cy_scb_spi.h **** 
 541:Generated_Source\PSoC6\pdl\drivers/peripheral/scb/cy_scb_spi.h ****     /**
 542:Generated_Source\PSoC6\pdl\drivers/peripheral/scb/cy_scb_spi.h ****     * Bits set in this mask will allow events to cause an interrupt
 543:Generated_Source\PSoC6\pdl\drivers/peripheral/scb/cy_scb_spi.h ****     * (See \ref group_scb_spi_macros_rx_fifo_status for the set of constant)
 544:Generated_Source\PSoC6\pdl\drivers/peripheral/scb/cy_scb_spi.h ****     */
 545:Generated_Source\PSoC6\pdl\drivers/peripheral/scb/cy_scb_spi.h ****     uint32_t    rxFifoIntEnableMask;
 546:Generated_Source\PSoC6\pdl\drivers/peripheral/scb/cy_scb_spi.h **** 
 547:Generated_Source\PSoC6\pdl\drivers/peripheral/scb/cy_scb_spi.h ****     /**
 548:Generated_Source\PSoC6\pdl\drivers/peripheral/scb/cy_scb_spi.h ****     * When there are fewer entries in the TX FIFO, then at this level
 549:Generated_Source\PSoC6\pdl\drivers/peripheral/scb/cy_scb_spi.h ****     * the TX trigger output goes high. This output can be connected
 550:Generated_Source\PSoC6\pdl\drivers/peripheral/scb/cy_scb_spi.h ****     * to a DMA channel through a trigger mux.
 551:Generated_Source\PSoC6\pdl\drivers/peripheral/scb/cy_scb_spi.h ****     * Also, it controls the \ref CY_SCB_SPI_TX_TRIGGER interrupt source.
 552:Generated_Source\PSoC6\pdl\drivers/peripheral/scb/cy_scb_spi.h ****     */
 553:Generated_Source\PSoC6\pdl\drivers/peripheral/scb/cy_scb_spi.h ****     uint32_t    txFifoTriggerLevel;
 554:Generated_Source\PSoC6\pdl\drivers/peripheral/scb/cy_scb_spi.h **** 
 555:Generated_Source\PSoC6\pdl\drivers/peripheral/scb/cy_scb_spi.h ****     /**
 556:Generated_Source\PSoC6\pdl\drivers/peripheral/scb/cy_scb_spi.h ****     * Bits set in this mask allow events to cause an interrupt
 557:Generated_Source\PSoC6\pdl\drivers/peripheral/scb/cy_scb_spi.h ****     * (See \ref group_scb_spi_macros_tx_fifo_status for the set of constants)
 558:Generated_Source\PSoC6\pdl\drivers/peripheral/scb/cy_scb_spi.h ****     */
 559:Generated_Source\PSoC6\pdl\drivers/peripheral/scb/cy_scb_spi.h ****     uint32_t    txFifoIntEnableMask;
 560:Generated_Source\PSoC6\pdl\drivers/peripheral/scb/cy_scb_spi.h **** 
 561:Generated_Source\PSoC6\pdl\drivers/peripheral/scb/cy_scb_spi.h ****     /**
 562:Generated_Source\PSoC6\pdl\drivers/peripheral/scb/cy_scb_spi.h ****     * Bits set in this mask allow events to cause an interrupt
 563:Generated_Source\PSoC6\pdl\drivers/peripheral/scb/cy_scb_spi.h ****     * (See \ref group_scb_spi_macros_master_slave_status for the set of
 564:Generated_Source\PSoC6\pdl\drivers/peripheral/scb/cy_scb_spi.h ****     * constants)
 565:Generated_Source\PSoC6\pdl\drivers/peripheral/scb/cy_scb_spi.h ****     */
 566:Generated_Source\PSoC6\pdl\drivers/peripheral/scb/cy_scb_spi.h ****     uint32_t    masterSlaveIntEnableMask;
 567:Generated_Source\PSoC6\pdl\drivers/peripheral/scb/cy_scb_spi.h **** 
 568:Generated_Source\PSoC6\pdl\drivers/peripheral/scb/cy_scb_spi.h **** }cy_stc_scb_spi_config_t;
 569:Generated_Source\PSoC6\pdl\drivers/peripheral/scb/cy_scb_spi.h **** 
 570:Generated_Source\PSoC6\pdl\drivers/peripheral/scb/cy_scb_spi.h **** /** SPI context structure.
 571:Generated_Source\PSoC6\pdl\drivers/peripheral/scb/cy_scb_spi.h **** * All fields for the context structure are internal. Firmware never reads or
 572:Generated_Source\PSoC6\pdl\drivers/peripheral/scb/cy_scb_spi.h **** * writes these values. Firmware allocates the structure and provides the
 573:Generated_Source\PSoC6\pdl\drivers/peripheral/scb/cy_scb_spi.h **** * address of the structure to the driver in function calls. Firmware must
 574:Generated_Source\PSoC6\pdl\drivers/peripheral/scb/cy_scb_spi.h **** * ensure that the defined instance of this structure remains in scope
 575:Generated_Source\PSoC6\pdl\drivers/peripheral/scb/cy_scb_spi.h **** * while the drive is in use.
 576:Generated_Source\PSoC6\pdl\drivers/peripheral/scb/cy_scb_spi.h **** */
 577:Generated_Source\PSoC6\pdl\drivers/peripheral/scb/cy_scb_spi.h **** typedef struct cy_stc_scb_spi_context
 578:Generated_Source\PSoC6\pdl\drivers/peripheral/scb/cy_scb_spi.h **** {
 579:Generated_Source\PSoC6\pdl\drivers/peripheral/scb/cy_scb_spi.h ****     /** \cond INTERNAL */
 580:Generated_Source\PSoC6\pdl\drivers/peripheral/scb/cy_scb_spi.h ****     uint32_t volatile status;       /**< The receive status */
 581:Generated_Source\PSoC6\pdl\drivers/peripheral/scb/cy_scb_spi.h **** 
 582:Generated_Source\PSoC6\pdl\drivers/peripheral/scb/cy_scb_spi.h ****     void    *rxBuf;                 /**< The pointer to the receive buffer */
 583:Generated_Source\PSoC6\pdl\drivers/peripheral/scb/cy_scb_spi.h ****     uint32_t rxBufSize;             /**< The receive buffer size */
 584:Generated_Source\PSoC6\pdl\drivers/peripheral/scb/cy_scb_spi.h ****     uint32_t volatile rxBufIdx;     /**< The current location in the receive buffer */
 585:Generated_Source\PSoC6\pdl\drivers/peripheral/scb/cy_scb_spi.h **** 
 586:Generated_Source\PSoC6\pdl\drivers/peripheral/scb/cy_scb_spi.h ****     void    *txBuf;                 /**< The pointer to the transmit buffer */
 587:Generated_Source\PSoC6\pdl\drivers/peripheral/scb/cy_scb_spi.h ****     uint32_t txBufSize;             /**< The transmit buffer size */
 588:Generated_Source\PSoC6\pdl\drivers/peripheral/scb/cy_scb_spi.h ****     uint32_t volatile txBufIdx;     /**< The current location in the transmit buffer */
 589:Generated_Source\PSoC6\pdl\drivers/peripheral/scb/cy_scb_spi.h **** 
 590:Generated_Source\PSoC6\pdl\drivers/peripheral/scb/cy_scb_spi.h ****     /**
 591:Generated_Source\PSoC6\pdl\drivers/peripheral/scb/cy_scb_spi.h ****     * The pointer to an event callback that is called when any of
 592:Generated_Source\PSoC6\pdl\drivers/peripheral/scb/cy_scb_spi.h ****     * \ref group_scb_spi_macros_callback_events occurs
 593:Generated_Source\PSoC6\pdl\drivers/peripheral/scb/cy_scb_spi.h ****     */
 594:Generated_Source\PSoC6\pdl\drivers/peripheral/scb/cy_scb_spi.h ****     cy_cb_scb_spi_handle_events_t cbEvents;
 595:Generated_Source\PSoC6\pdl\drivers/peripheral/scb/cy_scb_spi.h **** 
 596:Generated_Source\PSoC6\pdl\drivers/peripheral/scb/cy_scb_spi.h **** #if !defined(NDEBUG)
ARM GAS  C:\Users\PC\AppData\Local\Temp\ccXlt19g.s 			page 32


 597:Generated_Source\PSoC6\pdl\drivers/peripheral/scb/cy_scb_spi.h ****     uint32_t initKey;               /**< Tracks the context initialization */
 598:Generated_Source\PSoC6\pdl\drivers/peripheral/scb/cy_scb_spi.h **** #endif /* !(NDEBUG) */
 599:Generated_Source\PSoC6\pdl\drivers/peripheral/scb/cy_scb_spi.h ****     /** \endcond */
 600:Generated_Source\PSoC6\pdl\drivers/peripheral/scb/cy_scb_spi.h **** } cy_stc_scb_spi_context_t;
 601:Generated_Source\PSoC6\pdl\drivers/peripheral/scb/cy_scb_spi.h **** 
 602:Generated_Source\PSoC6\pdl\drivers/peripheral/scb/cy_scb_spi.h **** /** \} group_scb_spi_data_structures */
 603:Generated_Source\PSoC6\pdl\drivers/peripheral/scb/cy_scb_spi.h **** 
 604:Generated_Source\PSoC6\pdl\drivers/peripheral/scb/cy_scb_spi.h **** 
 605:Generated_Source\PSoC6\pdl\drivers/peripheral/scb/cy_scb_spi.h **** /***************************************
 606:Generated_Source\PSoC6\pdl\drivers/peripheral/scb/cy_scb_spi.h **** *        Function Prototypes
 607:Generated_Source\PSoC6\pdl\drivers/peripheral/scb/cy_scb_spi.h **** ***************************************/
 608:Generated_Source\PSoC6\pdl\drivers/peripheral/scb/cy_scb_spi.h **** 
 609:Generated_Source\PSoC6\pdl\drivers/peripheral/scb/cy_scb_spi.h **** /**
 610:Generated_Source\PSoC6\pdl\drivers/peripheral/scb/cy_scb_spi.h **** * \addtogroup group_scb_spi_general_functions
 611:Generated_Source\PSoC6\pdl\drivers/peripheral/scb/cy_scb_spi.h **** * \{
 612:Generated_Source\PSoC6\pdl\drivers/peripheral/scb/cy_scb_spi.h **** */
 613:Generated_Source\PSoC6\pdl\drivers/peripheral/scb/cy_scb_spi.h **** cy_en_scb_spi_status_t Cy_SCB_SPI_Init(CySCB_Type *base, cy_stc_scb_spi_config_t const *config,
 614:Generated_Source\PSoC6\pdl\drivers/peripheral/scb/cy_scb_spi.h ****                                        cy_stc_scb_spi_context_t *context);
 615:Generated_Source\PSoC6\pdl\drivers/peripheral/scb/cy_scb_spi.h **** void Cy_SCB_SPI_DeInit (CySCB_Type *base);
 616:Generated_Source\PSoC6\pdl\drivers/peripheral/scb/cy_scb_spi.h **** __STATIC_INLINE void Cy_SCB_SPI_Enable(CySCB_Type *base);
 617:Generated_Source\PSoC6\pdl\drivers/peripheral/scb/cy_scb_spi.h **** void Cy_SCB_SPI_Disable(CySCB_Type *base, cy_stc_scb_spi_context_t *context);
 618:Generated_Source\PSoC6\pdl\drivers/peripheral/scb/cy_scb_spi.h **** 
 619:Generated_Source\PSoC6\pdl\drivers/peripheral/scb/cy_scb_spi.h **** __STATIC_INLINE void Cy_SCB_SPI_SetActiveSlaveSelect(CySCB_Type *base,
 620:Generated_Source\PSoC6\pdl\drivers/peripheral/scb/cy_scb_spi.h ****                                     cy_en_scb_spi_slave_select_t slaveSelect);
 621:Generated_Source\PSoC6\pdl\drivers/peripheral/scb/cy_scb_spi.h **** __STATIC_INLINE void Cy_SCB_SPI_SetActiveSlaveSelectPolarity(CySCB_Type *base,
 622:Generated_Source\PSoC6\pdl\drivers/peripheral/scb/cy_scb_spi.h ****                                     cy_en_scb_spi_slave_select_t slaveSelect,
 623:Generated_Source\PSoC6\pdl\drivers/peripheral/scb/cy_scb_spi.h ****                                     cy_en_scb_spi_polarity_t polarity);
 624:Generated_Source\PSoC6\pdl\drivers/peripheral/scb/cy_scb_spi.h **** 
 625:Generated_Source\PSoC6\pdl\drivers/peripheral/scb/cy_scb_spi.h **** __STATIC_INLINE bool Cy_SCB_SPI_IsBusBusy(CySCB_Type const *base);
 626:Generated_Source\PSoC6\pdl\drivers/peripheral/scb/cy_scb_spi.h **** /** \} group_scb_spi_general_functions */
 627:Generated_Source\PSoC6\pdl\drivers/peripheral/scb/cy_scb_spi.h **** 
 628:Generated_Source\PSoC6\pdl\drivers/peripheral/scb/cy_scb_spi.h **** /**
 629:Generated_Source\PSoC6\pdl\drivers/peripheral/scb/cy_scb_spi.h **** * \addtogroup group_scb_spi_high_level_functions
 630:Generated_Source\PSoC6\pdl\drivers/peripheral/scb/cy_scb_spi.h **** * \{
 631:Generated_Source\PSoC6\pdl\drivers/peripheral/scb/cy_scb_spi.h **** */
 632:Generated_Source\PSoC6\pdl\drivers/peripheral/scb/cy_scb_spi.h **** cy_en_scb_spi_status_t Cy_SCB_SPI_Transfer(CySCB_Type *base, void *txBuffer, void *rxBuffer, uint32
 633:Generated_Source\PSoC6\pdl\drivers/peripheral/scb/cy_scb_spi.h ****                                            cy_stc_scb_spi_context_t *context);
 634:Generated_Source\PSoC6\pdl\drivers/peripheral/scb/cy_scb_spi.h **** void     Cy_SCB_SPI_AbortTransfer    (CySCB_Type *base, cy_stc_scb_spi_context_t *context);
 635:Generated_Source\PSoC6\pdl\drivers/peripheral/scb/cy_scb_spi.h **** uint32_t Cy_SCB_SPI_GetTransferStatus(CySCB_Type const *base, cy_stc_scb_spi_context_t const *conte
 636:Generated_Source\PSoC6\pdl\drivers/peripheral/scb/cy_scb_spi.h **** uint32_t Cy_SCB_SPI_GetNumTransfered (CySCB_Type const *base, cy_stc_scb_spi_context_t const *conte
 637:Generated_Source\PSoC6\pdl\drivers/peripheral/scb/cy_scb_spi.h **** /** \} group_scb_spi_high_level_functions */
 638:Generated_Source\PSoC6\pdl\drivers/peripheral/scb/cy_scb_spi.h **** 
 639:Generated_Source\PSoC6\pdl\drivers/peripheral/scb/cy_scb_spi.h **** /**
 640:Generated_Source\PSoC6\pdl\drivers/peripheral/scb/cy_scb_spi.h **** * \addtogroup group_scb_spi_low_level_functions
 641:Generated_Source\PSoC6\pdl\drivers/peripheral/scb/cy_scb_spi.h **** * \{
 642:Generated_Source\PSoC6\pdl\drivers/peripheral/scb/cy_scb_spi.h **** */
 643:Generated_Source\PSoC6\pdl\drivers/peripheral/scb/cy_scb_spi.h **** __STATIC_INLINE uint32_t Cy_SCB_SPI_Read     (CySCB_Type const *base);
 644:Generated_Source\PSoC6\pdl\drivers/peripheral/scb/cy_scb_spi.h **** __STATIC_INLINE uint32_t Cy_SCB_SPI_ReadArray(CySCB_Type const *base, void *buffer, uint32_t size);
 645:Generated_Source\PSoC6\pdl\drivers/peripheral/scb/cy_scb_spi.h **** 
 646:Generated_Source\PSoC6\pdl\drivers/peripheral/scb/cy_scb_spi.h **** __STATIC_INLINE uint32_t Cy_SCB_SPI_Write     (CySCB_Type *base, uint32_t data);
 647:Generated_Source\PSoC6\pdl\drivers/peripheral/scb/cy_scb_spi.h **** __STATIC_INLINE uint32_t Cy_SCB_SPI_WriteArray(CySCB_Type *base, void *buffer, uint32_t size);
 648:Generated_Source\PSoC6\pdl\drivers/peripheral/scb/cy_scb_spi.h **** __STATIC_INLINE void     Cy_SCB_SPI_WriteArrayBlocking(CySCB_Type *base, void *buffer, uint32_t siz
 649:Generated_Source\PSoC6\pdl\drivers/peripheral/scb/cy_scb_spi.h **** 
 650:Generated_Source\PSoC6\pdl\drivers/peripheral/scb/cy_scb_spi.h **** __STATIC_INLINE uint32_t Cy_SCB_SPI_GetTxFifoStatus  (CySCB_Type const *base);
 651:Generated_Source\PSoC6\pdl\drivers/peripheral/scb/cy_scb_spi.h **** __STATIC_INLINE void     Cy_SCB_SPI_ClearTxFifoStatus(CySCB_Type *base, uint32_t clearMask);
 652:Generated_Source\PSoC6\pdl\drivers/peripheral/scb/cy_scb_spi.h **** 
 653:Generated_Source\PSoC6\pdl\drivers/peripheral/scb/cy_scb_spi.h **** __STATIC_INLINE uint32_t Cy_SCB_SPI_GetRxFifoStatus  (CySCB_Type const *base);
ARM GAS  C:\Users\PC\AppData\Local\Temp\ccXlt19g.s 			page 33


 654:Generated_Source\PSoC6\pdl\drivers/peripheral/scb/cy_scb_spi.h **** __STATIC_INLINE void     Cy_SCB_SPI_ClearRxFifoStatus(CySCB_Type *base, uint32_t clearMask);
 655:Generated_Source\PSoC6\pdl\drivers/peripheral/scb/cy_scb_spi.h **** 
 656:Generated_Source\PSoC6\pdl\drivers/peripheral/scb/cy_scb_spi.h **** __STATIC_INLINE uint32_t Cy_SCB_SPI_GetSlaveMasterStatus  (CySCB_Type const *base);
 657:Generated_Source\PSoC6\pdl\drivers/peripheral/scb/cy_scb_spi.h **** __STATIC_INLINE void     Cy_SCB_SPI_ClearSlaveMasterStatus(CySCB_Type *base, uint32_t clearMask);
 658:Generated_Source\PSoC6\pdl\drivers/peripheral/scb/cy_scb_spi.h **** 
 659:Generated_Source\PSoC6\pdl\drivers/peripheral/scb/cy_scb_spi.h **** __STATIC_INLINE uint32_t Cy_SCB_SPI_GetNumInTxFifo(CySCB_Type const *base);
 660:Generated_Source\PSoC6\pdl\drivers/peripheral/scb/cy_scb_spi.h **** __STATIC_INLINE bool     Cy_SCB_SPI_IsTxComplete  (CySCB_Type const *base);
 661:Generated_Source\PSoC6\pdl\drivers/peripheral/scb/cy_scb_spi.h **** 
 662:Generated_Source\PSoC6\pdl\drivers/peripheral/scb/cy_scb_spi.h **** __STATIC_INLINE uint32_t Cy_SCB_SPI_GetNumInRxFifo(CySCB_Type const *base);
 663:Generated_Source\PSoC6\pdl\drivers/peripheral/scb/cy_scb_spi.h **** 
 664:Generated_Source\PSoC6\pdl\drivers/peripheral/scb/cy_scb_spi.h **** __STATIC_INLINE void Cy_SCB_SPI_ClearRxFifo(CySCB_Type *base);
 665:Generated_Source\PSoC6\pdl\drivers/peripheral/scb/cy_scb_spi.h **** __STATIC_INLINE void Cy_SCB_SPI_ClearTxFifo(CySCB_Type *base);
 666:Generated_Source\PSoC6\pdl\drivers/peripheral/scb/cy_scb_spi.h **** /** \} group_scb_spi_low_level_functions */
 667:Generated_Source\PSoC6\pdl\drivers/peripheral/scb/cy_scb_spi.h **** 
 668:Generated_Source\PSoC6\pdl\drivers/peripheral/scb/cy_scb_spi.h **** /**
 669:Generated_Source\PSoC6\pdl\drivers/peripheral/scb/cy_scb_spi.h **** * \addtogroup group_scb_spi_interrupt_functions
 670:Generated_Source\PSoC6\pdl\drivers/peripheral/scb/cy_scb_spi.h **** * \{
 671:Generated_Source\PSoC6\pdl\drivers/peripheral/scb/cy_scb_spi.h **** */
 672:Generated_Source\PSoC6\pdl\drivers/peripheral/scb/cy_scb_spi.h **** void Cy_SCB_SPI_Interrupt(CySCB_Type *base, cy_stc_scb_spi_context_t *context);
 673:Generated_Source\PSoC6\pdl\drivers/peripheral/scb/cy_scb_spi.h **** 
 674:Generated_Source\PSoC6\pdl\drivers/peripheral/scb/cy_scb_spi.h **** __STATIC_INLINE void Cy_SCB_SPI_RegisterCallback(CySCB_Type const *base, cy_cb_scb_spi_handle_event
 675:Generated_Source\PSoC6\pdl\drivers/peripheral/scb/cy_scb_spi.h ****                                                  cy_stc_scb_spi_context_t *context);
 676:Generated_Source\PSoC6\pdl\drivers/peripheral/scb/cy_scb_spi.h **** /** \} group_scb_spi_interrupt_functions */
 677:Generated_Source\PSoC6\pdl\drivers/peripheral/scb/cy_scb_spi.h **** 
 678:Generated_Source\PSoC6\pdl\drivers/peripheral/scb/cy_scb_spi.h **** /**
 679:Generated_Source\PSoC6\pdl\drivers/peripheral/scb/cy_scb_spi.h **** * \addtogroup group_scb_spi_low_power_functions
 680:Generated_Source\PSoC6\pdl\drivers/peripheral/scb/cy_scb_spi.h **** * \{
 681:Generated_Source\PSoC6\pdl\drivers/peripheral/scb/cy_scb_spi.h **** */
 682:Generated_Source\PSoC6\pdl\drivers/peripheral/scb/cy_scb_spi.h **** cy_en_syspm_status_t Cy_SCB_SPI_DeepSleepCallback(cy_stc_syspm_callback_params_t *callbackParams);
 683:Generated_Source\PSoC6\pdl\drivers/peripheral/scb/cy_scb_spi.h **** cy_en_syspm_status_t Cy_SCB_SPI_HibernateCallback(cy_stc_syspm_callback_params_t *callbackParams);
 684:Generated_Source\PSoC6\pdl\drivers/peripheral/scb/cy_scb_spi.h **** /** \} group_scb_spi_low_power_functions */
 685:Generated_Source\PSoC6\pdl\drivers/peripheral/scb/cy_scb_spi.h **** 
 686:Generated_Source\PSoC6\pdl\drivers/peripheral/scb/cy_scb_spi.h **** 
 687:Generated_Source\PSoC6\pdl\drivers/peripheral/scb/cy_scb_spi.h **** /***************************************
 688:Generated_Source\PSoC6\pdl\drivers/peripheral/scb/cy_scb_spi.h **** *            API Constants
 689:Generated_Source\PSoC6\pdl\drivers/peripheral/scb/cy_scb_spi.h **** ***************************************/
 690:Generated_Source\PSoC6\pdl\drivers/peripheral/scb/cy_scb_spi.h **** 
 691:Generated_Source\PSoC6\pdl\drivers/peripheral/scb/cy_scb_spi.h **** /**
 692:Generated_Source\PSoC6\pdl\drivers/peripheral/scb/cy_scb_spi.h **** * \addtogroup group_scb_spi_macros
 693:Generated_Source\PSoC6\pdl\drivers/peripheral/scb/cy_scb_spi.h **** * \{
 694:Generated_Source\PSoC6\pdl\drivers/peripheral/scb/cy_scb_spi.h **** */
 695:Generated_Source\PSoC6\pdl\drivers/peripheral/scb/cy_scb_spi.h **** 
 696:Generated_Source\PSoC6\pdl\drivers/peripheral/scb/cy_scb_spi.h **** /**
 697:Generated_Source\PSoC6\pdl\drivers/peripheral/scb/cy_scb_spi.h **** * \defgroup group_scb_spi_macros_tx_fifo_status SPI TX FIFO Statuses
 698:Generated_Source\PSoC6\pdl\drivers/peripheral/scb/cy_scb_spi.h **** * Each SPI TX FIFO status is encoded in a separate bit. Therefore multiple bits
 699:Generated_Source\PSoC6\pdl\drivers/peripheral/scb/cy_scb_spi.h **** * may be set to indicate the current status.
 700:Generated_Source\PSoC6\pdl\drivers/peripheral/scb/cy_scb_spi.h **** * \{
 701:Generated_Source\PSoC6\pdl\drivers/peripheral/scb/cy_scb_spi.h **** */
 702:Generated_Source\PSoC6\pdl\drivers/peripheral/scb/cy_scb_spi.h **** /** The number of entries in the TX FIFO is less than the TX FIFO trigger level
 703:Generated_Source\PSoC6\pdl\drivers/peripheral/scb/cy_scb_spi.h **** * value
 704:Generated_Source\PSoC6\pdl\drivers/peripheral/scb/cy_scb_spi.h **** */
 705:Generated_Source\PSoC6\pdl\drivers/peripheral/scb/cy_scb_spi.h **** #define CY_SCB_SPI_TX_TRIGGER       (SCB_INTR_TX_TRIGGER_Msk)
 706:Generated_Source\PSoC6\pdl\drivers/peripheral/scb/cy_scb_spi.h **** 
 707:Generated_Source\PSoC6\pdl\drivers/peripheral/scb/cy_scb_spi.h **** /** The TX FIFO is not full, there is a space for more data */
 708:Generated_Source\PSoC6\pdl\drivers/peripheral/scb/cy_scb_spi.h **** #define CY_SCB_SPI_TX_NOT_FULL      (SCB_INTR_TX_NOT_FULL_Msk)
 709:Generated_Source\PSoC6\pdl\drivers/peripheral/scb/cy_scb_spi.h **** 
 710:Generated_Source\PSoC6\pdl\drivers/peripheral/scb/cy_scb_spi.h **** /**
ARM GAS  C:\Users\PC\AppData\Local\Temp\ccXlt19g.s 			page 34


 711:Generated_Source\PSoC6\pdl\drivers/peripheral/scb/cy_scb_spi.h **** * The TX FIFO is empty, note that there may still be data in the shift register.
 712:Generated_Source\PSoC6\pdl\drivers/peripheral/scb/cy_scb_spi.h **** */
 713:Generated_Source\PSoC6\pdl\drivers/peripheral/scb/cy_scb_spi.h **** #define CY_SCB_SPI_TX_EMPTY         (SCB_INTR_TX_EMPTY_Msk)
 714:Generated_Source\PSoC6\pdl\drivers/peripheral/scb/cy_scb_spi.h **** 
 715:Generated_Source\PSoC6\pdl\drivers/peripheral/scb/cy_scb_spi.h **** /** An attempt to write to the full TX FIFO */
 716:Generated_Source\PSoC6\pdl\drivers/peripheral/scb/cy_scb_spi.h **** #define CY_SCB_SPI_TX_OVERFLOW      (SCB_INTR_TX_OVERFLOW_Msk)
 717:Generated_Source\PSoC6\pdl\drivers/peripheral/scb/cy_scb_spi.h **** 
 718:Generated_Source\PSoC6\pdl\drivers/peripheral/scb/cy_scb_spi.h **** /**
 719:Generated_Source\PSoC6\pdl\drivers/peripheral/scb/cy_scb_spi.h **** * Applicable only for the slave mode. The master tried to read more
 720:Generated_Source\PSoC6\pdl\drivers/peripheral/scb/cy_scb_spi.h **** * data elements than available.
 721:Generated_Source\PSoC6\pdl\drivers/peripheral/scb/cy_scb_spi.h **** */
 722:Generated_Source\PSoC6\pdl\drivers/peripheral/scb/cy_scb_spi.h **** #define CY_SCB_SPI_TX_UNDERFLOW     (SCB_INTR_TX_UNDERFLOW_Msk)
 723:Generated_Source\PSoC6\pdl\drivers/peripheral/scb/cy_scb_spi.h **** /** \} group_scb_spi_macros_tx_fifo_status */
 724:Generated_Source\PSoC6\pdl\drivers/peripheral/scb/cy_scb_spi.h **** 
 725:Generated_Source\PSoC6\pdl\drivers/peripheral/scb/cy_scb_spi.h **** /**
 726:Generated_Source\PSoC6\pdl\drivers/peripheral/scb/cy_scb_spi.h **** * \defgroup group_scb_spi_macros_rx_fifo_status SPI RX FIFO Statuses
 727:Generated_Source\PSoC6\pdl\drivers/peripheral/scb/cy_scb_spi.h **** * \{
 728:Generated_Source\PSoC6\pdl\drivers/peripheral/scb/cy_scb_spi.h **** * Each SPI RX FIFO status is encoded in a separate bit. Therefore, multiple
 729:Generated_Source\PSoC6\pdl\drivers/peripheral/scb/cy_scb_spi.h **** * bits may be set to indicate the current status.
 730:Generated_Source\PSoC6\pdl\drivers/peripheral/scb/cy_scb_spi.h **** */
 731:Generated_Source\PSoC6\pdl\drivers/peripheral/scb/cy_scb_spi.h **** /** The number of entries in the RX FIFO is more than the RX FIFO trigger
 732:Generated_Source\PSoC6\pdl\drivers/peripheral/scb/cy_scb_spi.h **** * level value.
 733:Generated_Source\PSoC6\pdl\drivers/peripheral/scb/cy_scb_spi.h **** */
 734:Generated_Source\PSoC6\pdl\drivers/peripheral/scb/cy_scb_spi.h **** #define CY_SCB_SPI_RX_TRIGGER       (SCB_INTR_RX_TRIGGER_Msk)
 735:Generated_Source\PSoC6\pdl\drivers/peripheral/scb/cy_scb_spi.h **** 
 736:Generated_Source\PSoC6\pdl\drivers/peripheral/scb/cy_scb_spi.h **** /** The RX FIFO is not empty, there is data to read */
 737:Generated_Source\PSoC6\pdl\drivers/peripheral/scb/cy_scb_spi.h **** #define CY_SCB_SPI_RX_NOT_EMPTY     (SCB_INTR_RX_NOT_EMPTY_Msk)
 738:Generated_Source\PSoC6\pdl\drivers/peripheral/scb/cy_scb_spi.h **** 
 739:Generated_Source\PSoC6\pdl\drivers/peripheral/scb/cy_scb_spi.h **** /**
 740:Generated_Source\PSoC6\pdl\drivers/peripheral/scb/cy_scb_spi.h **** * The RX FIFO is full. There is no more space for additional data.
 741:Generated_Source\PSoC6\pdl\drivers/peripheral/scb/cy_scb_spi.h **** * Any additional data will be dropped.
 742:Generated_Source\PSoC6\pdl\drivers/peripheral/scb/cy_scb_spi.h **** */
 743:Generated_Source\PSoC6\pdl\drivers/peripheral/scb/cy_scb_spi.h **** #define CY_SCB_SPI_RX_FULL          (SCB_INTR_RX_FULL_Msk)
 744:Generated_Source\PSoC6\pdl\drivers/peripheral/scb/cy_scb_spi.h **** 
 745:Generated_Source\PSoC6\pdl\drivers/peripheral/scb/cy_scb_spi.h **** /**
 746:Generated_Source\PSoC6\pdl\drivers/peripheral/scb/cy_scb_spi.h **** * The RX FIFO was full and there was an attempt to write to it.
 747:Generated_Source\PSoC6\pdl\drivers/peripheral/scb/cy_scb_spi.h **** * This additional data was dropped.
 748:Generated_Source\PSoC6\pdl\drivers/peripheral/scb/cy_scb_spi.h **** */
 749:Generated_Source\PSoC6\pdl\drivers/peripheral/scb/cy_scb_spi.h **** #define CY_SCB_SPI_RX_OVERFLOW      (SCB_INTR_RX_OVERFLOW_Msk)
 750:Generated_Source\PSoC6\pdl\drivers/peripheral/scb/cy_scb_spi.h **** 
 751:Generated_Source\PSoC6\pdl\drivers/peripheral/scb/cy_scb_spi.h **** /** An attempt to read from an empty RX FIFO */
 752:Generated_Source\PSoC6\pdl\drivers/peripheral/scb/cy_scb_spi.h **** #define CY_SCB_SPI_RX_UNDERFLOW     (SCB_INTR_RX_UNDERFLOW_Msk)
 753:Generated_Source\PSoC6\pdl\drivers/peripheral/scb/cy_scb_spi.h **** /** \} group_scb_spi_macros_rx_fifo_status */
 754:Generated_Source\PSoC6\pdl\drivers/peripheral/scb/cy_scb_spi.h **** 
 755:Generated_Source\PSoC6\pdl\drivers/peripheral/scb/cy_scb_spi.h **** /**
 756:Generated_Source\PSoC6\pdl\drivers/peripheral/scb/cy_scb_spi.h **** * \defgroup group_scb_spi_macros_master_slave_status SPI Master and Slave Statuses
 757:Generated_Source\PSoC6\pdl\drivers/peripheral/scb/cy_scb_spi.h **** * \{
 758:Generated_Source\PSoC6\pdl\drivers/peripheral/scb/cy_scb_spi.h **** */
 759:Generated_Source\PSoC6\pdl\drivers/peripheral/scb/cy_scb_spi.h **** /** The slave was deselected at the wrong time */
 760:Generated_Source\PSoC6\pdl\drivers/peripheral/scb/cy_scb_spi.h **** #define CY_SCB_SPI_SLAVE_ERR       (SCB_INTR_S_SPI_BUS_ERROR_Msk)
 761:Generated_Source\PSoC6\pdl\drivers/peripheral/scb/cy_scb_spi.h **** 
 762:Generated_Source\PSoC6\pdl\drivers/peripheral/scb/cy_scb_spi.h **** /** The master has transmitted all data elements from FIFO and shifter */
 763:Generated_Source\PSoC6\pdl\drivers/peripheral/scb/cy_scb_spi.h **** #define CY_SCB_SPI_MASTER_DONE     (SCB_INTR_M_SPI_DONE_Msk)
 764:Generated_Source\PSoC6\pdl\drivers/peripheral/scb/cy_scb_spi.h **** /** \} group_scb_spi_macros_master_slave_status */
 765:Generated_Source\PSoC6\pdl\drivers/peripheral/scb/cy_scb_spi.h **** 
 766:Generated_Source\PSoC6\pdl\drivers/peripheral/scb/cy_scb_spi.h **** /**
 767:Generated_Source\PSoC6\pdl\drivers/peripheral/scb/cy_scb_spi.h **** * \defgroup group_scb_spi_macros_xfer_status SPI Transfer Status
ARM GAS  C:\Users\PC\AppData\Local\Temp\ccXlt19g.s 			page 35


 768:Generated_Source\PSoC6\pdl\drivers/peripheral/scb/cy_scb_spi.h **** * \{
 769:Generated_Source\PSoC6\pdl\drivers/peripheral/scb/cy_scb_spi.h **** * Each SPI transfer status is encoded in a separate bit, therefore multiple bits
 770:Generated_Source\PSoC6\pdl\drivers/peripheral/scb/cy_scb_spi.h **** * may be set to indicate the current status.
 771:Generated_Source\PSoC6\pdl\drivers/peripheral/scb/cy_scb_spi.h **** */
 772:Generated_Source\PSoC6\pdl\drivers/peripheral/scb/cy_scb_spi.h **** /**
 773:Generated_Source\PSoC6\pdl\drivers/peripheral/scb/cy_scb_spi.h **** * Transfer operation started by \ref Cy_SCB_SPI_Transfer is in progress
 774:Generated_Source\PSoC6\pdl\drivers/peripheral/scb/cy_scb_spi.h **** */
 775:Generated_Source\PSoC6\pdl\drivers/peripheral/scb/cy_scb_spi.h **** #define CY_SCB_SPI_TRANSFER_ACTIVE     (0x01UL)
 776:Generated_Source\PSoC6\pdl\drivers/peripheral/scb/cy_scb_spi.h **** 
 777:Generated_Source\PSoC6\pdl\drivers/peripheral/scb/cy_scb_spi.h **** /**
 778:Generated_Source\PSoC6\pdl\drivers/peripheral/scb/cy_scb_spi.h **** * All data elements specified by \ref Cy_SCB_SPI_Transfer for transmission
 779:Generated_Source\PSoC6\pdl\drivers/peripheral/scb/cy_scb_spi.h **** * have been loaded into the TX FIFO
 780:Generated_Source\PSoC6\pdl\drivers/peripheral/scb/cy_scb_spi.h **** */
 781:Generated_Source\PSoC6\pdl\drivers/peripheral/scb/cy_scb_spi.h **** #define CY_SCB_SPI_TRANSFER_IN_FIFO    (0x02UL)
 782:Generated_Source\PSoC6\pdl\drivers/peripheral/scb/cy_scb_spi.h **** 
 783:Generated_Source\PSoC6\pdl\drivers/peripheral/scb/cy_scb_spi.h **** /** The slave was deselected at the wrong time. */
 784:Generated_Source\PSoC6\pdl\drivers/peripheral/scb/cy_scb_spi.h **** #define CY_SCB_SPI_SLAVE_TRANSFER_ERR  (SCB_INTR_S_SPI_BUS_ERROR_Msk)
 785:Generated_Source\PSoC6\pdl\drivers/peripheral/scb/cy_scb_spi.h **** 
 786:Generated_Source\PSoC6\pdl\drivers/peripheral/scb/cy_scb_spi.h **** /**
 787:Generated_Source\PSoC6\pdl\drivers/peripheral/scb/cy_scb_spi.h **** * RX FIFO was full and there was an attempt to write to it.
 788:Generated_Source\PSoC6\pdl\drivers/peripheral/scb/cy_scb_spi.h **** * This additional data was dropped.
 789:Generated_Source\PSoC6\pdl\drivers/peripheral/scb/cy_scb_spi.h **** */
 790:Generated_Source\PSoC6\pdl\drivers/peripheral/scb/cy_scb_spi.h **** #define CY_SCB_SPI_TRANSFER_OVERFLOW   (SCB_INTR_RX_OVERFLOW_Msk)
 791:Generated_Source\PSoC6\pdl\drivers/peripheral/scb/cy_scb_spi.h **** 
 792:Generated_Source\PSoC6\pdl\drivers/peripheral/scb/cy_scb_spi.h **** /**
 793:Generated_Source\PSoC6\pdl\drivers/peripheral/scb/cy_scb_spi.h **** * Applicable only for the slave mode. The master tried to read more
 794:Generated_Source\PSoC6\pdl\drivers/peripheral/scb/cy_scb_spi.h **** * data elements than available in the TX FIFO.
 795:Generated_Source\PSoC6\pdl\drivers/peripheral/scb/cy_scb_spi.h **** */
 796:Generated_Source\PSoC6\pdl\drivers/peripheral/scb/cy_scb_spi.h **** #define CY_SCB_SPI_TRANSFER_UNDERFLOW  (SCB_INTR_TX_UNDERFLOW_Msk)
 797:Generated_Source\PSoC6\pdl\drivers/peripheral/scb/cy_scb_spi.h **** /** \} group_scb_spi_macros_xfer_status */
 798:Generated_Source\PSoC6\pdl\drivers/peripheral/scb/cy_scb_spi.h **** 
 799:Generated_Source\PSoC6\pdl\drivers/peripheral/scb/cy_scb_spi.h **** /**
 800:Generated_Source\PSoC6\pdl\drivers/peripheral/scb/cy_scb_spi.h **** * \defgroup group_scb_spi_macros_callback_events SPI Callback Events
 801:Generated_Source\PSoC6\pdl\drivers/peripheral/scb/cy_scb_spi.h **** * \{
 802:Generated_Source\PSoC6\pdl\drivers/peripheral/scb/cy_scb_spi.h **** * Only single event is notified by the callback.
 803:Generated_Source\PSoC6\pdl\drivers/peripheral/scb/cy_scb_spi.h **** */
 804:Generated_Source\PSoC6\pdl\drivers/peripheral/scb/cy_scb_spi.h **** /**
 805:Generated_Source\PSoC6\pdl\drivers/peripheral/scb/cy_scb_spi.h **** * All data elements specified by \ref Cy_SCB_SPI_Transfer for transmission
 806:Generated_Source\PSoC6\pdl\drivers/peripheral/scb/cy_scb_spi.h **** * have been loaded into the TX FIFO
 807:Generated_Source\PSoC6\pdl\drivers/peripheral/scb/cy_scb_spi.h **** */
 808:Generated_Source\PSoC6\pdl\drivers/peripheral/scb/cy_scb_spi.h **** #define CY_SCB_SPI_TRANSFER_IN_FIFO_EVENT  (0x01U)
 809:Generated_Source\PSoC6\pdl\drivers/peripheral/scb/cy_scb_spi.h **** 
 810:Generated_Source\PSoC6\pdl\drivers/peripheral/scb/cy_scb_spi.h **** /** The transfer operation started by \ref Cy_SCB_SPI_Transfer is complete */
 811:Generated_Source\PSoC6\pdl\drivers/peripheral/scb/cy_scb_spi.h **** #define CY_SCB_SPI_TRANSFER_CMPLT_EVENT    (0x02U)
 812:Generated_Source\PSoC6\pdl\drivers/peripheral/scb/cy_scb_spi.h **** 
 813:Generated_Source\PSoC6\pdl\drivers/peripheral/scb/cy_scb_spi.h **** /**
 814:Generated_Source\PSoC6\pdl\drivers/peripheral/scb/cy_scb_spi.h **** * An error occurred during the transfer. This includes overflow, underflow
 815:Generated_Source\PSoC6\pdl\drivers/peripheral/scb/cy_scb_spi.h **** * and a transfer error. Check \ref Cy_SCB_SPI_GetTransferStatus.
 816:Generated_Source\PSoC6\pdl\drivers/peripheral/scb/cy_scb_spi.h **** */
 817:Generated_Source\PSoC6\pdl\drivers/peripheral/scb/cy_scb_spi.h **** #define CY_SCB_SPI_TRANSFER_ERR_EVENT      (0x04U)
 818:Generated_Source\PSoC6\pdl\drivers/peripheral/scb/cy_scb_spi.h **** /** \} group_scb_spi_macros_callback_events */
 819:Generated_Source\PSoC6\pdl\drivers/peripheral/scb/cy_scb_spi.h **** 
 820:Generated_Source\PSoC6\pdl\drivers/peripheral/scb/cy_scb_spi.h **** 
 821:Generated_Source\PSoC6\pdl\drivers/peripheral/scb/cy_scb_spi.h **** /** Default TX value when no TX buffer is defined */
 822:Generated_Source\PSoC6\pdl\drivers/peripheral/scb/cy_scb_spi.h **** #define CY_SCB_SPI_DEFAULT_TX  (0x0000FFFFUL)
 823:Generated_Source\PSoC6\pdl\drivers/peripheral/scb/cy_scb_spi.h **** 
 824:Generated_Source\PSoC6\pdl\drivers/peripheral/scb/cy_scb_spi.h **** /** Data returned by the hardware when an empty RX FIFO is read */
ARM GAS  C:\Users\PC\AppData\Local\Temp\ccXlt19g.s 			page 36


 825:Generated_Source\PSoC6\pdl\drivers/peripheral/scb/cy_scb_spi.h **** #define CY_SCB_SPI_RX_NO_DATA  (0xFFFFFFFFUL)
 826:Generated_Source\PSoC6\pdl\drivers/peripheral/scb/cy_scb_spi.h **** 
 827:Generated_Source\PSoC6\pdl\drivers/peripheral/scb/cy_scb_spi.h **** 
 828:Generated_Source\PSoC6\pdl\drivers/peripheral/scb/cy_scb_spi.h **** /***************************************
 829:Generated_Source\PSoC6\pdl\drivers/peripheral/scb/cy_scb_spi.h **** *         Internal Constants
 830:Generated_Source\PSoC6\pdl\drivers/peripheral/scb/cy_scb_spi.h **** ***************************************/
 831:Generated_Source\PSoC6\pdl\drivers/peripheral/scb/cy_scb_spi.h **** 
 832:Generated_Source\PSoC6\pdl\drivers/peripheral/scb/cy_scb_spi.h **** /** \cond INTERNAL */
 833:Generated_Source\PSoC6\pdl\drivers/peripheral/scb/cy_scb_spi.h **** #define CY_SCB_SPI_RX_INTR_MASK  (CY_SCB_SPI_RX_TRIGGER  | CY_SCB_SPI_RX_NOT_EMPTY | CY_SCB_SPI_RX_
 834:Generated_Source\PSoC6\pdl\drivers/peripheral/scb/cy_scb_spi.h ****                                   CY_SCB_SPI_RX_OVERFLOW | CY_SCB_SPI_RX_UNDERFLOW)
 835:Generated_Source\PSoC6\pdl\drivers/peripheral/scb/cy_scb_spi.h **** 
 836:Generated_Source\PSoC6\pdl\drivers/peripheral/scb/cy_scb_spi.h **** #define CY_SCB_SPI_TX_INTR_MASK  (CY_SCB_SPI_TX_TRIGGER  | CY_SCB_SPI_TX_NOT_FULL | CY_SCB_SPI_TX_E
 837:Generated_Source\PSoC6\pdl\drivers/peripheral/scb/cy_scb_spi.h ****                                   CY_SCB_SPI_TX_OVERFLOW | CY_SCB_SPI_TX_UNDERFLOW)
 838:Generated_Source\PSoC6\pdl\drivers/peripheral/scb/cy_scb_spi.h **** 
 839:Generated_Source\PSoC6\pdl\drivers/peripheral/scb/cy_scb_spi.h **** #define CY_SCB_SPI_MASTER_SLAVE_INTR_MASK (CY_SCB_SPI_MASTER_DONE | CY_SCB_SPI_SLAVE_ERR)
 840:Generated_Source\PSoC6\pdl\drivers/peripheral/scb/cy_scb_spi.h **** 
 841:Generated_Source\PSoC6\pdl\drivers/peripheral/scb/cy_scb_spi.h **** #define CY_SCB_SPI_TRANSFER_ERR    (CY_SCB_SPI_SLAVE_TRANSFER_ERR | CY_SCB_SPI_TRANSFER_OVERFLOW | 
 842:Generated_Source\PSoC6\pdl\drivers/peripheral/scb/cy_scb_spi.h ****                                     CY_SCB_SPI_TRANSFER_UNDERFLOW)
 843:Generated_Source\PSoC6\pdl\drivers/peripheral/scb/cy_scb_spi.h **** 
 844:Generated_Source\PSoC6\pdl\drivers/peripheral/scb/cy_scb_spi.h **** #define CY_SCB_SPI_INIT_KEY        (0x00ABCDEFUL)
 845:Generated_Source\PSoC6\pdl\drivers/peripheral/scb/cy_scb_spi.h **** 
 846:Generated_Source\PSoC6\pdl\drivers/peripheral/scb/cy_scb_spi.h **** #define CY_SCB_SPI_IS_MODE_VALID(mode)          ( (CY_SCB_SPI_SLAVE  == (mode)) || \
 847:Generated_Source\PSoC6\pdl\drivers/peripheral/scb/cy_scb_spi.h ****                                                   (CY_SCB_SPI_MASTER == (mode)) )
 848:Generated_Source\PSoC6\pdl\drivers/peripheral/scb/cy_scb_spi.h **** 
 849:Generated_Source\PSoC6\pdl\drivers/peripheral/scb/cy_scb_spi.h **** #define CY_SCB_SPI_IS_SUB_MODE_VALID(subMode)   ( (CY_SCB_SPI_MOTOROLA     == (subMode)) || \
 850:Generated_Source\PSoC6\pdl\drivers/peripheral/scb/cy_scb_spi.h ****                                                   (CY_SCB_SPI_TI_COINCIDES == (subMode)) || \
 851:Generated_Source\PSoC6\pdl\drivers/peripheral/scb/cy_scb_spi.h ****                                                   (CY_SCB_SPI_TI_PRECEDES  == (subMode)) || \
 852:Generated_Source\PSoC6\pdl\drivers/peripheral/scb/cy_scb_spi.h ****                                                   (CY_SCB_SPI_NATIONAL     == (subMode)) )
 853:Generated_Source\PSoC6\pdl\drivers/peripheral/scb/cy_scb_spi.h **** 
 854:Generated_Source\PSoC6\pdl\drivers/peripheral/scb/cy_scb_spi.h **** #define CY_SCB_SPI_IS_SCLK_MODE_VALID(clkMode)  ( (CY_SCB_SPI_CPHA0_CPOL0 == (clkMode)) || \
 855:Generated_Source\PSoC6\pdl\drivers/peripheral/scb/cy_scb_spi.h ****                                                   (CY_SCB_SPI_CPHA0_CPOL1 == (clkMode)) || \
 856:Generated_Source\PSoC6\pdl\drivers/peripheral/scb/cy_scb_spi.h ****                                                   (CY_SCB_SPI_CPHA1_CPOL0 == (clkMode)) || \
 857:Generated_Source\PSoC6\pdl\drivers/peripheral/scb/cy_scb_spi.h ****                                                   (CY_SCB_SPI_CPHA1_CPOL1 == (clkMode)) )
 858:Generated_Source\PSoC6\pdl\drivers/peripheral/scb/cy_scb_spi.h **** 
 859:Generated_Source\PSoC6\pdl\drivers/peripheral/scb/cy_scb_spi.h **** #define CY_SCB_SPI_IS_POLARITY_VALID(polarity)  ( (CY_SCB_SPI_ACTIVE_LOW  == (polarity)) || \
 860:Generated_Source\PSoC6\pdl\drivers/peripheral/scb/cy_scb_spi.h ****                                                   (CY_SCB_SPI_ACTIVE_HIGH == (polarity)) )
 861:Generated_Source\PSoC6\pdl\drivers/peripheral/scb/cy_scb_spi.h **** 
 862:Generated_Source\PSoC6\pdl\drivers/peripheral/scb/cy_scb_spi.h **** #define CY_SCB_SPI_IS_SLAVE_SEL_VALID(ss)       ( (CY_SCB_SPI_SLAVE_SELECT0 == (ss)) || \
 863:Generated_Source\PSoC6\pdl\drivers/peripheral/scb/cy_scb_spi.h ****                                                   (CY_SCB_SPI_SLAVE_SELECT1 == (ss)) || \
 864:Generated_Source\PSoC6\pdl\drivers/peripheral/scb/cy_scb_spi.h ****                                                   (CY_SCB_SPI_SLAVE_SELECT2 == (ss)) || \
 865:Generated_Source\PSoC6\pdl\drivers/peripheral/scb/cy_scb_spi.h ****                                                   (CY_SCB_SPI_SLAVE_SELECT3 == (ss)) )
 866:Generated_Source\PSoC6\pdl\drivers/peripheral/scb/cy_scb_spi.h **** 
 867:Generated_Source\PSoC6\pdl\drivers/peripheral/scb/cy_scb_spi.h **** #define CY_SCB_SPI_IS_OVERSAMPLE_VALID(ovs, mode)   ( (CY_SCB_SPI_MASTER == (mode)) ? (((ovs) >= 2U
 868:Generated_Source\PSoC6\pdl\drivers/peripheral/scb/cy_scb_spi.h **** #define CY_SCB_SPI_IS_DATA_WIDTH_VALID(width)       ( ((width) >= 4UL) && ((width) <= 16UL) )
 869:Generated_Source\PSoC6\pdl\drivers/peripheral/scb/cy_scb_spi.h **** #define CY_SCB_SPI_IS_SS_POLARITY_VALID(polarity)   ( (0UL == ((polarity) & (~0x0FUL))) )
 870:Generated_Source\PSoC6\pdl\drivers/peripheral/scb/cy_scb_spi.h **** #define CY_SCB_SPI_IS_BUFFER_VALID(txBuffer, rxBuffer, size)  ( ((size) > 0UL)  && \
 871:Generated_Source\PSoC6\pdl\drivers/peripheral/scb/cy_scb_spi.h ****                                                                  (false == ((NULL == (txBuffer)) &&
 872:Generated_Source\PSoC6\pdl\drivers/peripheral/scb/cy_scb_spi.h **** 
 873:Generated_Source\PSoC6\pdl\drivers/peripheral/scb/cy_scb_spi.h **** #define CY_SCB_SPI_IS_BOTH_DATA_WIDTH_VALID(subMode, rxWidth, txWidth)  ( (CY_SCB_SPI_NATIONAL != (
 874:Generated_Source\PSoC6\pdl\drivers/peripheral/scb/cy_scb_spi.h ****                                                                                     ((rxWidth) == (
 875:Generated_Source\PSoC6\pdl\drivers/peripheral/scb/cy_scb_spi.h **** 
 876:Generated_Source\PSoC6\pdl\drivers/peripheral/scb/cy_scb_spi.h **** /** \endcond */
 877:Generated_Source\PSoC6\pdl\drivers/peripheral/scb/cy_scb_spi.h **** 
 878:Generated_Source\PSoC6\pdl\drivers/peripheral/scb/cy_scb_spi.h **** /** \} group_scb_spi_macros */
 879:Generated_Source\PSoC6\pdl\drivers/peripheral/scb/cy_scb_spi.h **** 
 880:Generated_Source\PSoC6\pdl\drivers/peripheral/scb/cy_scb_spi.h **** 
 881:Generated_Source\PSoC6\pdl\drivers/peripheral/scb/cy_scb_spi.h **** /***************************************
ARM GAS  C:\Users\PC\AppData\Local\Temp\ccXlt19g.s 			page 37


 882:Generated_Source\PSoC6\pdl\drivers/peripheral/scb/cy_scb_spi.h **** *    In-line Function Implementation
 883:Generated_Source\PSoC6\pdl\drivers/peripheral/scb/cy_scb_spi.h **** ***************************************/
 884:Generated_Source\PSoC6\pdl\drivers/peripheral/scb/cy_scb_spi.h **** 
 885:Generated_Source\PSoC6\pdl\drivers/peripheral/scb/cy_scb_spi.h **** /**
 886:Generated_Source\PSoC6\pdl\drivers/peripheral/scb/cy_scb_spi.h **** * \addtogroup group_scb_spi_general_functions
 887:Generated_Source\PSoC6\pdl\drivers/peripheral/scb/cy_scb_spi.h **** * \{
 888:Generated_Source\PSoC6\pdl\drivers/peripheral/scb/cy_scb_spi.h **** */
 889:Generated_Source\PSoC6\pdl\drivers/peripheral/scb/cy_scb_spi.h **** 
 890:Generated_Source\PSoC6\pdl\drivers/peripheral/scb/cy_scb_spi.h **** /*******************************************************************************
 891:Generated_Source\PSoC6\pdl\drivers/peripheral/scb/cy_scb_spi.h **** * Function Name: Cy_SCB_SPI_Enable
 892:Generated_Source\PSoC6\pdl\drivers/peripheral/scb/cy_scb_spi.h **** ****************************************************************************//**
 893:Generated_Source\PSoC6\pdl\drivers/peripheral/scb/cy_scb_spi.h **** *
 894:Generated_Source\PSoC6\pdl\drivers/peripheral/scb/cy_scb_spi.h **** * Enables the SCB block for the SPI operation.
 895:Generated_Source\PSoC6\pdl\drivers/peripheral/scb/cy_scb_spi.h **** *
 896:Generated_Source\PSoC6\pdl\drivers/peripheral/scb/cy_scb_spi.h **** * \param base
 897:Generated_Source\PSoC6\pdl\drivers/peripheral/scb/cy_scb_spi.h **** * The pointer to the SPI SCB instance.
 898:Generated_Source\PSoC6\pdl\drivers/peripheral/scb/cy_scb_spi.h **** *
 899:Generated_Source\PSoC6\pdl\drivers/peripheral/scb/cy_scb_spi.h **** *******************************************************************************/
 900:Generated_Source\PSoC6\pdl\drivers/peripheral/scb/cy_scb_spi.h **** __STATIC_INLINE void Cy_SCB_SPI_Enable(CySCB_Type *base)
 901:Generated_Source\PSoC6\pdl\drivers/peripheral/scb/cy_scb_spi.h **** {
 902:Generated_Source\PSoC6\pdl\drivers/peripheral/scb/cy_scb_spi.h ****     base->CTRL |= SCB_CTRL_ENABLED_Msk;
 154              		.loc 4 902 0
 155 000e 2368     		ldr	r3, [r4]
 156 0010 43F00043 		orr	r3, r3, #-2147483648
 157 0014 2360     		str	r3, [r4]
 158              	.LVL8:
 159              	.LBE114:
 160              	.LBE113:
 161              	.LBB115:
 162              	.LBB116:
 163              		.file 5 "Generated_Source\\PSoC6\\pdl\\drivers/peripheral/gpio/cy_gpio.h"
   1:Generated_Source\PSoC6\pdl\drivers/peripheral/gpio/cy_gpio.h **** /***************************************************************************//**
   2:Generated_Source\PSoC6\pdl\drivers/peripheral/gpio/cy_gpio.h **** * \file cy_gpio.h
   3:Generated_Source\PSoC6\pdl\drivers/peripheral/gpio/cy_gpio.h **** * \version 1.10.1
   4:Generated_Source\PSoC6\pdl\drivers/peripheral/gpio/cy_gpio.h **** *
   5:Generated_Source\PSoC6\pdl\drivers/peripheral/gpio/cy_gpio.h **** * \brief
   6:Generated_Source\PSoC6\pdl\drivers/peripheral/gpio/cy_gpio.h **** * Provides an API declaration of the GPIO driver
   7:Generated_Source\PSoC6\pdl\drivers/peripheral/gpio/cy_gpio.h **** *
   8:Generated_Source\PSoC6\pdl\drivers/peripheral/gpio/cy_gpio.h **** ********************************************************************************
   9:Generated_Source\PSoC6\pdl\drivers/peripheral/gpio/cy_gpio.h **** * \copyright
  10:Generated_Source\PSoC6\pdl\drivers/peripheral/gpio/cy_gpio.h **** * Copyright 2016-2018, Cypress Semiconductor Corporation. All rights reserved.
  11:Generated_Source\PSoC6\pdl\drivers/peripheral/gpio/cy_gpio.h **** * You may use this file only in accordance with the license, terms, conditions,
  12:Generated_Source\PSoC6\pdl\drivers/peripheral/gpio/cy_gpio.h **** * disclaimers, and limitations in the end user license agreement accompanying
  13:Generated_Source\PSoC6\pdl\drivers/peripheral/gpio/cy_gpio.h **** * the software package with which this file was provided.
  14:Generated_Source\PSoC6\pdl\drivers/peripheral/gpio/cy_gpio.h **** *******************************************************************************/
  15:Generated_Source\PSoC6\pdl\drivers/peripheral/gpio/cy_gpio.h **** 
  16:Generated_Source\PSoC6\pdl\drivers/peripheral/gpio/cy_gpio.h **** /**
  17:Generated_Source\PSoC6\pdl\drivers/peripheral/gpio/cy_gpio.h **** * \defgroup group_gpio General Purpose Input Output (GPIO)
  18:Generated_Source\PSoC6\pdl\drivers/peripheral/gpio/cy_gpio.h **** * \{
  19:Generated_Source\PSoC6\pdl\drivers/peripheral/gpio/cy_gpio.h **** * The GPIO driver provides an API to configure and access device Input/Output pins.
  20:Generated_Source\PSoC6\pdl\drivers/peripheral/gpio/cy_gpio.h **** * IO pins include all general purpose types such as GPIO, SIO, HSIO, AUXIO, and
  21:Generated_Source\PSoC6\pdl\drivers/peripheral/gpio/cy_gpio.h **** * their variants.
  22:Generated_Source\PSoC6\pdl\drivers/peripheral/gpio/cy_gpio.h **** *
  23:Generated_Source\PSoC6\pdl\drivers/peripheral/gpio/cy_gpio.h **** * Initialization can be performed either at the port level or by configuring the
  24:Generated_Source\PSoC6\pdl\drivers/peripheral/gpio/cy_gpio.h **** * individual pins. For efficient use of code space, port
  25:Generated_Source\PSoC6\pdl\drivers/peripheral/gpio/cy_gpio.h **** * configuration should be used in the field. Refer to the product device header files 
  26:Generated_Source\PSoC6\pdl\drivers/peripheral/gpio/cy_gpio.h **** * for the list of supported ports and pins.
ARM GAS  C:\Users\PC\AppData\Local\Temp\ccXlt19g.s 			page 38


  27:Generated_Source\PSoC6\pdl\drivers/peripheral/gpio/cy_gpio.h **** * 
  28:Generated_Source\PSoC6\pdl\drivers/peripheral/gpio/cy_gpio.h **** * - Single pin configuration is performed by using \ref Cy_GPIO_Pin_FastInit 
  29:Generated_Source\PSoC6\pdl\drivers/peripheral/gpio/cy_gpio.h **** *   (provide specific values) or \ref Cy_GPIO_Pin_Init (provide a filled
  30:Generated_Source\PSoC6\pdl\drivers/peripheral/gpio/cy_gpio.h **** *   cy_stc_gpio_pin_config_t structure).
  31:Generated_Source\PSoC6\pdl\drivers/peripheral/gpio/cy_gpio.h **** * - An entire port can be configured using \ref Cy_GPIO_Port_Init. Provide a filled 
  32:Generated_Source\PSoC6\pdl\drivers/peripheral/gpio/cy_gpio.h **** *   cy_stc_gpio_prt_config_t structure. The values in the structure are 
  33:Generated_Source\PSoC6\pdl\drivers/peripheral/gpio/cy_gpio.h **** *   bitfields representing the desired value for each pin in the port.
  34:Generated_Source\PSoC6\pdl\drivers/peripheral/gpio/cy_gpio.h **** * - Pin configuration and management is based on the port address and pin number.
  35:Generated_Source\PSoC6\pdl\drivers/peripheral/gpio/cy_gpio.h **** *   \ref Cy_GPIO_PortToAddr function can optionally be used to calculate the port
  36:Generated_Source\PSoC6\pdl\drivers/peripheral/gpio/cy_gpio.h **** *   address from the port number at run-time.
  37:Generated_Source\PSoC6\pdl\drivers/peripheral/gpio/cy_gpio.h **** *
  38:Generated_Source\PSoC6\pdl\drivers/peripheral/gpio/cy_gpio.h **** * Once the pin/port initialization is complete, each pin can be accessed by 
  39:Generated_Source\PSoC6\pdl\drivers/peripheral/gpio/cy_gpio.h **** * specifying the port (GPIO_PRT_Type) and the pin (0-7) in the provided API 
  40:Generated_Source\PSoC6\pdl\drivers/peripheral/gpio/cy_gpio.h **** * functions.
  41:Generated_Source\PSoC6\pdl\drivers/peripheral/gpio/cy_gpio.h **** *
  42:Generated_Source\PSoC6\pdl\drivers/peripheral/gpio/cy_gpio.h **** * \section group_gpio_configuration Configuration Considerations
  43:Generated_Source\PSoC6\pdl\drivers/peripheral/gpio/cy_gpio.h **** *
  44:Generated_Source\PSoC6\pdl\drivers/peripheral/gpio/cy_gpio.h **** * 1. Pin multiplexing is controlled through the High-Speed IO Matrix (HSIOM) selection.
  45:Generated_Source\PSoC6\pdl\drivers/peripheral/gpio/cy_gpio.h **** *    This allows the pin to connect to signal sources/sinks throughout the device,
  46:Generated_Source\PSoC6\pdl\drivers/peripheral/gpio/cy_gpio.h **** *    as defined by the pin HSIOM selection options (en_hsiom_sel_t).
  47:Generated_Source\PSoC6\pdl\drivers/peripheral/gpio/cy_gpio.h **** * 2. All pins are initialized to High-Z drive mode with HSIOM connected to CPU (SW
  48:Generated_Source\PSoC6\pdl\drivers/peripheral/gpio/cy_gpio.h **** *    control digital pin only) at Power-On-Reset(POR).
  49:Generated_Source\PSoC6\pdl\drivers/peripheral/gpio/cy_gpio.h **** * 3. Some API functions perform read-modify-write operations on shared port
  50:Generated_Source\PSoC6\pdl\drivers/peripheral/gpio/cy_gpio.h **** *    registers. These functions are not thread safe and care must be taken when
  51:Generated_Source\PSoC6\pdl\drivers/peripheral/gpio/cy_gpio.h **** *    called by the application.
  52:Generated_Source\PSoC6\pdl\drivers/peripheral/gpio/cy_gpio.h **** *
  53:Generated_Source\PSoC6\pdl\drivers/peripheral/gpio/cy_gpio.h **** * Multiple pins on a port can be updated using direct port register writes with an
  54:Generated_Source\PSoC6\pdl\drivers/peripheral/gpio/cy_gpio.h **** * appropriate port mask. An example is shown below, highlighting the different ways of 
  55:Generated_Source\PSoC6\pdl\drivers/peripheral/gpio/cy_gpio.h **** * configuring Port 1 pins using,
  56:Generated_Source\PSoC6\pdl\drivers/peripheral/gpio/cy_gpio.h **** * 
  57:Generated_Source\PSoC6\pdl\drivers/peripheral/gpio/cy_gpio.h **** * - Port output data register
  58:Generated_Source\PSoC6\pdl\drivers/peripheral/gpio/cy_gpio.h **** * - Port output data set register
  59:Generated_Source\PSoC6\pdl\drivers/peripheral/gpio/cy_gpio.h **** * - Port output data clear register
  60:Generated_Source\PSoC6\pdl\drivers/peripheral/gpio/cy_gpio.h **** *
  61:Generated_Source\PSoC6\pdl\drivers/peripheral/gpio/cy_gpio.h **** * \snippet gpio/gpio_v1_10_sut_01.cydsn/main_cm4.c Cy_GPIO_Snippet
  62:Generated_Source\PSoC6\pdl\drivers/peripheral/gpio/cy_gpio.h **** *
  63:Generated_Source\PSoC6\pdl\drivers/peripheral/gpio/cy_gpio.h **** * \section group_gpio_more_information More Information
  64:Generated_Source\PSoC6\pdl\drivers/peripheral/gpio/cy_gpio.h **** *
  65:Generated_Source\PSoC6\pdl\drivers/peripheral/gpio/cy_gpio.h **** * Refer to the technical reference manual (TRM) and the device datasheet.
  66:Generated_Source\PSoC6\pdl\drivers/peripheral/gpio/cy_gpio.h **** *
  67:Generated_Source\PSoC6\pdl\drivers/peripheral/gpio/cy_gpio.h **** * \section group_gpio_MISRA MISRA-C Compliance]
  68:Generated_Source\PSoC6\pdl\drivers/peripheral/gpio/cy_gpio.h **** * <table class="doxtable">
  69:Generated_Source\PSoC6\pdl\drivers/peripheral/gpio/cy_gpio.h **** *   <tr>
  70:Generated_Source\PSoC6\pdl\drivers/peripheral/gpio/cy_gpio.h **** *     <th>MISRA Rule</th>
  71:Generated_Source\PSoC6\pdl\drivers/peripheral/gpio/cy_gpio.h **** *     <th>Rule Class (Required/Advisory)</th>
  72:Generated_Source\PSoC6\pdl\drivers/peripheral/gpio/cy_gpio.h **** *     <th>Rule Description</th>
  73:Generated_Source\PSoC6\pdl\drivers/peripheral/gpio/cy_gpio.h **** *     <th>Description of Deviation(s)</th>
  74:Generated_Source\PSoC6\pdl\drivers/peripheral/gpio/cy_gpio.h **** *   </tr>
  75:Generated_Source\PSoC6\pdl\drivers/peripheral/gpio/cy_gpio.h **** *   <tr>
  76:Generated_Source\PSoC6\pdl\drivers/peripheral/gpio/cy_gpio.h **** *     <td>16.7</td>
  77:Generated_Source\PSoC6\pdl\drivers/peripheral/gpio/cy_gpio.h **** *     <td>A</td>
  78:Generated_Source\PSoC6\pdl\drivers/peripheral/gpio/cy_gpio.h **** *     <td>A pointer parameter in a function prototype should be declared as pointer 
  79:Generated_Source\PSoC6\pdl\drivers/peripheral/gpio/cy_gpio.h **** *         to const if the pointer is not used to modify the addressed object.</td>
  80:Generated_Source\PSoC6\pdl\drivers/peripheral/gpio/cy_gpio.h **** *     <td>The objects pointed to by the base addresses of the GPIO port are not always modified.
  81:Generated_Source\PSoC6\pdl\drivers/peripheral/gpio/cy_gpio.h **** *         While a const qualifier can be used in select scenarios, it brings little benefit
  82:Generated_Source\PSoC6\pdl\drivers/peripheral/gpio/cy_gpio.h **** *         in adding this to the affected functions. </td>
  83:Generated_Source\PSoC6\pdl\drivers/peripheral/gpio/cy_gpio.h **** *   </tr>
ARM GAS  C:\Users\PC\AppData\Local\Temp\ccXlt19g.s 			page 39


  84:Generated_Source\PSoC6\pdl\drivers/peripheral/gpio/cy_gpio.h **** * </table>
  85:Generated_Source\PSoC6\pdl\drivers/peripheral/gpio/cy_gpio.h **** *
  86:Generated_Source\PSoC6\pdl\drivers/peripheral/gpio/cy_gpio.h **** * \section group_gpio_changelog Changelog
  87:Generated_Source\PSoC6\pdl\drivers/peripheral/gpio/cy_gpio.h **** * <table class="doxtable">
  88:Generated_Source\PSoC6\pdl\drivers/peripheral/gpio/cy_gpio.h **** *   <tr><th>Version</th><th>Changes</th><th>Reason for Change</th></tr>
  89:Generated_Source\PSoC6\pdl\drivers/peripheral/gpio/cy_gpio.h **** *   <tr>
  90:Generated_Source\PSoC6\pdl\drivers/peripheral/gpio/cy_gpio.h **** *     <td>1.10.1</td>
  91:Generated_Source\PSoC6\pdl\drivers/peripheral/gpio/cy_gpio.h **** *     <td>Updated description for the functions: \ref Cy_GPIO_GetInterruptStatus, 
  92:Generated_Source\PSoC6\pdl\drivers/peripheral/gpio/cy_gpio.h **** *         \ref Cy_GPIO_GetInterruptMask, \ref Cy_GPIO_GetInterruptStatusMasked.
  93:Generated_Source\PSoC6\pdl\drivers/peripheral/gpio/cy_gpio.h **** *         Minor documentation edits.
  94:Generated_Source\PSoC6\pdl\drivers/peripheral/gpio/cy_gpio.h **** *     </td>
  95:Generated_Source\PSoC6\pdl\drivers/peripheral/gpio/cy_gpio.h **** *     <td>Documentation update and clarification</td>
  96:Generated_Source\PSoC6\pdl\drivers/peripheral/gpio/cy_gpio.h **** *   </tr>
  97:Generated_Source\PSoC6\pdl\drivers/peripheral/gpio/cy_gpio.h **** *   <tr>
  98:Generated_Source\PSoC6\pdl\drivers/peripheral/gpio/cy_gpio.h **** *     <td>1.10</td>
  99:Generated_Source\PSoC6\pdl\drivers/peripheral/gpio/cy_gpio.h **** *     <td>Added input parameter validation to the API functions</td>
 100:Generated_Source\PSoC6\pdl\drivers/peripheral/gpio/cy_gpio.h **** *     <td></td>
 101:Generated_Source\PSoC6\pdl\drivers/peripheral/gpio/cy_gpio.h **** *   </tr>
 102:Generated_Source\PSoC6\pdl\drivers/peripheral/gpio/cy_gpio.h **** *   <tr>
 103:Generated_Source\PSoC6\pdl\drivers/peripheral/gpio/cy_gpio.h **** *     <td>1.0</td>
 104:Generated_Source\PSoC6\pdl\drivers/peripheral/gpio/cy_gpio.h **** *     <td>Initial version</td>
 105:Generated_Source\PSoC6\pdl\drivers/peripheral/gpio/cy_gpio.h **** *     <td></td>
 106:Generated_Source\PSoC6\pdl\drivers/peripheral/gpio/cy_gpio.h **** *   </tr>
 107:Generated_Source\PSoC6\pdl\drivers/peripheral/gpio/cy_gpio.h **** * </table>
 108:Generated_Source\PSoC6\pdl\drivers/peripheral/gpio/cy_gpio.h **** *
 109:Generated_Source\PSoC6\pdl\drivers/peripheral/gpio/cy_gpio.h **** * \defgroup group_gpio_macros Macros
 110:Generated_Source\PSoC6\pdl\drivers/peripheral/gpio/cy_gpio.h **** * \defgroup group_gpio_functions Functions
 111:Generated_Source\PSoC6\pdl\drivers/peripheral/gpio/cy_gpio.h **** * \{
 112:Generated_Source\PSoC6\pdl\drivers/peripheral/gpio/cy_gpio.h **** *   \defgroup group_gpio_functions_init       Initialization Functions
 113:Generated_Source\PSoC6\pdl\drivers/peripheral/gpio/cy_gpio.h **** *   \defgroup group_gpio_functions_gpio       GPIO Functions
 114:Generated_Source\PSoC6\pdl\drivers/peripheral/gpio/cy_gpio.h **** *   \defgroup group_gpio_functions_sio        SIO Functions
 115:Generated_Source\PSoC6\pdl\drivers/peripheral/gpio/cy_gpio.h **** *   \defgroup group_gpio_functions_interrupt  Port Interrupt Functions
 116:Generated_Source\PSoC6\pdl\drivers/peripheral/gpio/cy_gpio.h **** * \}
 117:Generated_Source\PSoC6\pdl\drivers/peripheral/gpio/cy_gpio.h **** * \defgroup group_gpio_data_structures Data Structures
 118:Generated_Source\PSoC6\pdl\drivers/peripheral/gpio/cy_gpio.h **** * \defgroup group_gpio_enums Enumerated Types
 119:Generated_Source\PSoC6\pdl\drivers/peripheral/gpio/cy_gpio.h **** */
 120:Generated_Source\PSoC6\pdl\drivers/peripheral/gpio/cy_gpio.h **** 
 121:Generated_Source\PSoC6\pdl\drivers/peripheral/gpio/cy_gpio.h **** #if !defined(CY_GPIO_H)
 122:Generated_Source\PSoC6\pdl\drivers/peripheral/gpio/cy_gpio.h **** #define CY_GPIO_H
 123:Generated_Source\PSoC6\pdl\drivers/peripheral/gpio/cy_gpio.h **** 
 124:Generated_Source\PSoC6\pdl\drivers/peripheral/gpio/cy_gpio.h **** #include <stddef.h>
 125:Generated_Source\PSoC6\pdl\drivers/peripheral/gpio/cy_gpio.h **** #include "syslib/cy_syslib.h"
 126:Generated_Source\PSoC6\pdl\drivers/peripheral/gpio/cy_gpio.h **** #include "cy_device_headers.h"
 127:Generated_Source\PSoC6\pdl\drivers/peripheral/gpio/cy_gpio.h **** 
 128:Generated_Source\PSoC6\pdl\drivers/peripheral/gpio/cy_gpio.h **** #if defined(__cplusplus)
 129:Generated_Source\PSoC6\pdl\drivers/peripheral/gpio/cy_gpio.h **** extern "C" {
 130:Generated_Source\PSoC6\pdl\drivers/peripheral/gpio/cy_gpio.h **** #endif
 131:Generated_Source\PSoC6\pdl\drivers/peripheral/gpio/cy_gpio.h **** 
 132:Generated_Source\PSoC6\pdl\drivers/peripheral/gpio/cy_gpio.h **** /** \addtogroup group_gpio_macros
 133:Generated_Source\PSoC6\pdl\drivers/peripheral/gpio/cy_gpio.h **** * \{
 134:Generated_Source\PSoC6\pdl\drivers/peripheral/gpio/cy_gpio.h **** */
 135:Generated_Source\PSoC6\pdl\drivers/peripheral/gpio/cy_gpio.h **** 
 136:Generated_Source\PSoC6\pdl\drivers/peripheral/gpio/cy_gpio.h **** /** Driver major version */
 137:Generated_Source\PSoC6\pdl\drivers/peripheral/gpio/cy_gpio.h **** #define CY_GPIO_DRV_VERSION_MAJOR       1
 138:Generated_Source\PSoC6\pdl\drivers/peripheral/gpio/cy_gpio.h **** 
 139:Generated_Source\PSoC6\pdl\drivers/peripheral/gpio/cy_gpio.h **** /** Driver minor version */
 140:Generated_Source\PSoC6\pdl\drivers/peripheral/gpio/cy_gpio.h **** #define CY_GPIO_DRV_VERSION_MINOR       10
ARM GAS  C:\Users\PC\AppData\Local\Temp\ccXlt19g.s 			page 40


 141:Generated_Source\PSoC6\pdl\drivers/peripheral/gpio/cy_gpio.h **** 
 142:Generated_Source\PSoC6\pdl\drivers/peripheral/gpio/cy_gpio.h **** /** GPIO driver ID */
 143:Generated_Source\PSoC6\pdl\drivers/peripheral/gpio/cy_gpio.h **** #define CY_GPIO_ID CY_PDL_DRV_ID(0x16u)
 144:Generated_Source\PSoC6\pdl\drivers/peripheral/gpio/cy_gpio.h **** 
 145:Generated_Source\PSoC6\pdl\drivers/peripheral/gpio/cy_gpio.h **** /** \} group_gpio_macros */
 146:Generated_Source\PSoC6\pdl\drivers/peripheral/gpio/cy_gpio.h **** 
 147:Generated_Source\PSoC6\pdl\drivers/peripheral/gpio/cy_gpio.h **** 
 148:Generated_Source\PSoC6\pdl\drivers/peripheral/gpio/cy_gpio.h **** /***************************************
 149:Generated_Source\PSoC6\pdl\drivers/peripheral/gpio/cy_gpio.h **** *       Enumerations
 150:Generated_Source\PSoC6\pdl\drivers/peripheral/gpio/cy_gpio.h **** ***************************************/
 151:Generated_Source\PSoC6\pdl\drivers/peripheral/gpio/cy_gpio.h **** /**
 152:Generated_Source\PSoC6\pdl\drivers/peripheral/gpio/cy_gpio.h **** * \addtogroup group_gpio_enums
 153:Generated_Source\PSoC6\pdl\drivers/peripheral/gpio/cy_gpio.h **** * \{
 154:Generated_Source\PSoC6\pdl\drivers/peripheral/gpio/cy_gpio.h **** */
 155:Generated_Source\PSoC6\pdl\drivers/peripheral/gpio/cy_gpio.h **** 
 156:Generated_Source\PSoC6\pdl\drivers/peripheral/gpio/cy_gpio.h **** /**
 157:Generated_Source\PSoC6\pdl\drivers/peripheral/gpio/cy_gpio.h **** * GPIO Driver error codes
 158:Generated_Source\PSoC6\pdl\drivers/peripheral/gpio/cy_gpio.h **** */
 159:Generated_Source\PSoC6\pdl\drivers/peripheral/gpio/cy_gpio.h **** typedef enum 
 160:Generated_Source\PSoC6\pdl\drivers/peripheral/gpio/cy_gpio.h **** {
 161:Generated_Source\PSoC6\pdl\drivers/peripheral/gpio/cy_gpio.h ****     CY_GPIO_SUCCESS   = 0x00u,                                    /**< Returned successful */
 162:Generated_Source\PSoC6\pdl\drivers/peripheral/gpio/cy_gpio.h ****     CY_GPIO_BAD_PARAM = CY_GPIO_ID | CY_PDL_STATUS_ERROR | 0x01u, /**< Bad parameter was passed */
 163:Generated_Source\PSoC6\pdl\drivers/peripheral/gpio/cy_gpio.h **** } cy_en_gpio_status_t;
 164:Generated_Source\PSoC6\pdl\drivers/peripheral/gpio/cy_gpio.h **** 
 165:Generated_Source\PSoC6\pdl\drivers/peripheral/gpio/cy_gpio.h **** /** \} group_gpio_enums */
 166:Generated_Source\PSoC6\pdl\drivers/peripheral/gpio/cy_gpio.h **** 
 167:Generated_Source\PSoC6\pdl\drivers/peripheral/gpio/cy_gpio.h **** 
 168:Generated_Source\PSoC6\pdl\drivers/peripheral/gpio/cy_gpio.h **** /***************************************
 169:Generated_Source\PSoC6\pdl\drivers/peripheral/gpio/cy_gpio.h **** *       Configuration Structures
 170:Generated_Source\PSoC6\pdl\drivers/peripheral/gpio/cy_gpio.h **** ***************************************/
 171:Generated_Source\PSoC6\pdl\drivers/peripheral/gpio/cy_gpio.h **** 
 172:Generated_Source\PSoC6\pdl\drivers/peripheral/gpio/cy_gpio.h **** /**
 173:Generated_Source\PSoC6\pdl\drivers/peripheral/gpio/cy_gpio.h **** * \addtogroup group_gpio_data_structures
 174:Generated_Source\PSoC6\pdl\drivers/peripheral/gpio/cy_gpio.h **** * \{
 175:Generated_Source\PSoC6\pdl\drivers/peripheral/gpio/cy_gpio.h **** */
 176:Generated_Source\PSoC6\pdl\drivers/peripheral/gpio/cy_gpio.h **** 
 177:Generated_Source\PSoC6\pdl\drivers/peripheral/gpio/cy_gpio.h **** /** This structure is used to initialize a port of GPIO pins */
 178:Generated_Source\PSoC6\pdl\drivers/peripheral/gpio/cy_gpio.h **** typedef struct {
 179:Generated_Source\PSoC6\pdl\drivers/peripheral/gpio/cy_gpio.h ****     uint32_t out;           /**< Initial output data for the IO pins in the port */
 180:Generated_Source\PSoC6\pdl\drivers/peripheral/gpio/cy_gpio.h ****     uint32_t intrMask;      /**< Interrupt enable mask for the port interrupt */
 181:Generated_Source\PSoC6\pdl\drivers/peripheral/gpio/cy_gpio.h ****     uint32_t intrCfg;       /**< Port pin interrupt edge detection configuration */
 182:Generated_Source\PSoC6\pdl\drivers/peripheral/gpio/cy_gpio.h ****     uint32_t cfg;           /**< Port pin drive modes and input buffer enable configuration */
 183:Generated_Source\PSoC6\pdl\drivers/peripheral/gpio/cy_gpio.h ****     uint32_t cfgIn;         /**< Port pin input buffer configuration */
 184:Generated_Source\PSoC6\pdl\drivers/peripheral/gpio/cy_gpio.h ****     uint32_t cfgOut;        /**< Port pin output buffer configuration */
 185:Generated_Source\PSoC6\pdl\drivers/peripheral/gpio/cy_gpio.h ****     uint32_t cfgSIO;        /**< Port SIO pins configuration */
 186:Generated_Source\PSoC6\pdl\drivers/peripheral/gpio/cy_gpio.h ****     uint32_t sel0Active;    /**< HSIOM selection for port pins 0,1,2,3 */
 187:Generated_Source\PSoC6\pdl\drivers/peripheral/gpio/cy_gpio.h ****     uint32_t sel1Active;    /**< HSIOM selection for port pins 4,5,6,7 */
 188:Generated_Source\PSoC6\pdl\drivers/peripheral/gpio/cy_gpio.h **** } cy_stc_gpio_prt_config_t;
 189:Generated_Source\PSoC6\pdl\drivers/peripheral/gpio/cy_gpio.h **** 
 190:Generated_Source\PSoC6\pdl\drivers/peripheral/gpio/cy_gpio.h **** /** This structure is used to initialize a single GPIO pin */
 191:Generated_Source\PSoC6\pdl\drivers/peripheral/gpio/cy_gpio.h **** typedef struct {
 192:Generated_Source\PSoC6\pdl\drivers/peripheral/gpio/cy_gpio.h ****     uint32_t outVal;         /**< Pin output state */
 193:Generated_Source\PSoC6\pdl\drivers/peripheral/gpio/cy_gpio.h ****     uint32_t driveMode;      /**< Drive mode */
 194:Generated_Source\PSoC6\pdl\drivers/peripheral/gpio/cy_gpio.h ****     en_hsiom_sel_t hsiom;   /**< HSIOM selection */
 195:Generated_Source\PSoC6\pdl\drivers/peripheral/gpio/cy_gpio.h ****     uint32_t intEdge;        /**< Interrupt Edge type */
 196:Generated_Source\PSoC6\pdl\drivers/peripheral/gpio/cy_gpio.h ****     uint32_t intMask;        /**< Interrupt enable mask */
 197:Generated_Source\PSoC6\pdl\drivers/peripheral/gpio/cy_gpio.h ****     uint32_t vtrip;          /**< Input buffer voltage trip type */
ARM GAS  C:\Users\PC\AppData\Local\Temp\ccXlt19g.s 			page 41


 198:Generated_Source\PSoC6\pdl\drivers/peripheral/gpio/cy_gpio.h ****     uint32_t slewRate;       /**< Output buffer slew rate */
 199:Generated_Source\PSoC6\pdl\drivers/peripheral/gpio/cy_gpio.h ****     uint32_t driveSel;       /**< Drive strength */
 200:Generated_Source\PSoC6\pdl\drivers/peripheral/gpio/cy_gpio.h ****     uint32_t vregEn;         /**< SIO pair output buffer mode */
 201:Generated_Source\PSoC6\pdl\drivers/peripheral/gpio/cy_gpio.h ****     uint32_t ibufMode;       /**< SIO pair input buffer mode */
 202:Generated_Source\PSoC6\pdl\drivers/peripheral/gpio/cy_gpio.h ****     uint32_t vtripSel;       /**< SIO pair input buffer trip point */
 203:Generated_Source\PSoC6\pdl\drivers/peripheral/gpio/cy_gpio.h ****     uint32_t vrefSel;        /**< SIO pair reference voltage for input buffer trip point */
 204:Generated_Source\PSoC6\pdl\drivers/peripheral/gpio/cy_gpio.h ****     uint32_t vohSel;         /**< SIO pair regulated voltage output level */
 205:Generated_Source\PSoC6\pdl\drivers/peripheral/gpio/cy_gpio.h **** } cy_stc_gpio_pin_config_t;
 206:Generated_Source\PSoC6\pdl\drivers/peripheral/gpio/cy_gpio.h **** 
 207:Generated_Source\PSoC6\pdl\drivers/peripheral/gpio/cy_gpio.h **** /** \} group_gpio_data_structures */
 208:Generated_Source\PSoC6\pdl\drivers/peripheral/gpio/cy_gpio.h **** 
 209:Generated_Source\PSoC6\pdl\drivers/peripheral/gpio/cy_gpio.h **** /***************************************
 210:Generated_Source\PSoC6\pdl\drivers/peripheral/gpio/cy_gpio.h **** *        Constants
 211:Generated_Source\PSoC6\pdl\drivers/peripheral/gpio/cy_gpio.h **** ***************************************/
 212:Generated_Source\PSoC6\pdl\drivers/peripheral/gpio/cy_gpio.h **** 
 213:Generated_Source\PSoC6\pdl\drivers/peripheral/gpio/cy_gpio.h **** /** \cond INTERNAL */
 214:Generated_Source\PSoC6\pdl\drivers/peripheral/gpio/cy_gpio.h **** 
 215:Generated_Source\PSoC6\pdl\drivers/peripheral/gpio/cy_gpio.h **** /* General Constants */
 216:Generated_Source\PSoC6\pdl\drivers/peripheral/gpio/cy_gpio.h **** #define CY_GPIO_PRT_HALF                       (4UL)      /**< Half-way point of a GPIO port */
 217:Generated_Source\PSoC6\pdl\drivers/peripheral/gpio/cy_gpio.h **** #define CY_GPIO_PRT_DEINIT                     (0UL)      /**< De-init value for port registers */
 218:Generated_Source\PSoC6\pdl\drivers/peripheral/gpio/cy_gpio.h **** 
 219:Generated_Source\PSoC6\pdl\drivers/peripheral/gpio/cy_gpio.h **** /* GPIO Masks */
 220:Generated_Source\PSoC6\pdl\drivers/peripheral/gpio/cy_gpio.h **** #define CY_GPIO_HSIOM_MASK                     (0x1FUL)   /**< HSIOM selection mask */
 221:Generated_Source\PSoC6\pdl\drivers/peripheral/gpio/cy_gpio.h **** #define CY_GPIO_OUT_MASK                       (0x01UL)   /**< Single pin mask for OUT register */
 222:Generated_Source\PSoC6\pdl\drivers/peripheral/gpio/cy_gpio.h **** #define CY_GPIO_IN_MASK                        (0x01UL)   /**< Single pin mask for IN register */
 223:Generated_Source\PSoC6\pdl\drivers/peripheral/gpio/cy_gpio.h **** #define CY_GPIO_CFG_DM_MASK                    (0x0FUL)   /**< Single pin mask for drive mode in CF
 224:Generated_Source\PSoC6\pdl\drivers/peripheral/gpio/cy_gpio.h **** #define CY_GPIO_CFG_IN_VTRIP_SEL_MASK          (0x01UL)   /**< Single pin mask for VTRIP selection 
 225:Generated_Source\PSoC6\pdl\drivers/peripheral/gpio/cy_gpio.h **** #define CY_GPIO_CFG_OUT_SLOW_MASK              (0x01UL)   /**< Single pin mask for slew rate in CFG
 226:Generated_Source\PSoC6\pdl\drivers/peripheral/gpio/cy_gpio.h **** #define CY_GPIO_CFG_OUT_DRIVE_SEL_MASK         (0x03UL)   /**< Single pin mask for drive strength i
 227:Generated_Source\PSoC6\pdl\drivers/peripheral/gpio/cy_gpio.h **** #define CY_GPIO_INTR_STATUS_MASK               (0x01UL)   /**< Single pin mask for interrupt status
 228:Generated_Source\PSoC6\pdl\drivers/peripheral/gpio/cy_gpio.h **** #define CY_GPIO_INTR_EN_MASK                   (0x01UL)   /**< Single pin mask for interrupt status
 229:Generated_Source\PSoC6\pdl\drivers/peripheral/gpio/cy_gpio.h **** #define CY_GPIO_INTR_MASKED_MASK               (0x01UL)   /**< Single pin mask for masked interrupt
 230:Generated_Source\PSoC6\pdl\drivers/peripheral/gpio/cy_gpio.h **** #define CY_GPIO_INTR_SET_MASK                  (0x01UL)   /**< Single pin mask for setting the inte
