ARM GAS  C:\Users\PC\AppData\Local\Temp\cc7QDVdy.s 			page 1


   1              		.syntax unified
   2              		.cpu cortex-m4
   3              		.eabi_attribute 27, 1
   4              		.fpu fpv4-sp-d16
   5              		.eabi_attribute 20, 1
   6              		.eabi_attribute 21, 1
   7              		.eabi_attribute 23, 3
   8              		.eabi_attribute 24, 1
   9              		.eabi_attribute 25, 1
  10              		.eabi_attribute 26, 1
  11              		.eabi_attribute 30, 1
  12              		.eabi_attribute 34, 1
  13              		.eabi_attribute 18, 4
  14              		.thumb
  15              		.syntax unified
  16              		.file	"main_cm4.c"
  17              		.text
  18              	.Ltext0:
  19              		.cfi_sections	.debug_frame
  20              		.section	.text.UpdateDisplay,"ax",%progbits
  21              		.align	2
  22              		.global	UpdateDisplay
  23              		.thumb
  24              		.thumb_func
  25              		.type	UpdateDisplay, %function
  26              	UpdateDisplay:
  27              	.LFB549:
  28              		.file 1 "main_cm4.c"
   1:main_cm4.c    **** #include "project.h"
   2:main_cm4.c    **** #include <stdio.h>
   3:main_cm4.c    **** #include "GUI.h"
   4:main_cm4.c    **** #include "pervasive_eink_hardware_driver.h"
   5:main_cm4.c    **** #include "cy_eink_library.h"
   6:main_cm4.c    **** #include "LCDConf.h"
   7:main_cm4.c    **** 
   8:main_cm4.c    **** #include "BLEFindMe.h"
   9:main_cm4.c    **** 
  10:main_cm4.c    **** /* Frame buffers */
  11:main_cm4.c    **** uint8 imageBufferCache[CY_EINK_FRAME_SIZE] = {0};
  12:main_cm4.c    **** uint8 imageBuffer[CY_EINK_FRAME_SIZE] = {0};
  13:main_cm4.c    **** 
  14:main_cm4.c    **** void UpdateDisplay(cy_eink_update_t updateMethod, bool powerCycle)
  15:main_cm4.c    **** {
  29              		.loc 1 15 0
  30              		.cfi_startproc
  31              		@ args = 0, pretend = 0, frame = 0
  32              		@ frame_needed = 0, uses_anonymous_args = 0
  33              	.LVL0:
  34 0000 F8B5     		push	{r3, r4, r5, r6, r7, lr}
  35              		.cfi_def_cfa_offset 24
  36              		.cfi_offset 3, -24
  37              		.cfi_offset 4, -20
  38              		.cfi_offset 5, -16
  39              		.cfi_offset 6, -12
  40              		.cfi_offset 7, -8
  41              		.cfi_offset 14, -4
  42 0002 0646     		mov	r6, r0
ARM GAS  C:\Users\PC\AppData\Local\Temp\cc7QDVdy.s 			page 2


  43 0004 0F46     		mov	r7, r1
  16:main_cm4.c    ****     /* Copy the EmWin display buffer to imageBuffer*/
  17:main_cm4.c    ****     LCD_CopyDisplayBuffer(imageBuffer, CY_EINK_FRAME_SIZE);
  44              		.loc 1 17 0
  45 0006 094D     		ldr	r5, .L3
  46 0008 41F2B061 		movw	r1, #5808
  47              	.LVL1:
  48 000c 2846     		mov	r0, r5
  49              	.LVL2:
  50 000e FFF7FEFF 		bl	LCD_CopyDisplayBuffer
  51              	.LVL3:
  18:main_cm4.c    **** 
  19:main_cm4.c    ****     /* Update the EInk display */
  20:main_cm4.c    ****     Cy_EINK_ShowFrame(imageBufferCache, imageBuffer, updateMethod, powerCycle);
  52              		.loc 1 20 0
  53 0012 074C     		ldr	r4, .L3+4
  54 0014 3B46     		mov	r3, r7
  55 0016 3246     		mov	r2, r6
  56 0018 2946     		mov	r1, r5
  57 001a 2046     		mov	r0, r4
  58 001c FFF7FEFF 		bl	Cy_EINK_ShowFrame
  59              	.LVL4:
  21:main_cm4.c    **** 
  22:main_cm4.c    ****     /* Copy the EmWin display buffer to the imageBuffer cache*/
  23:main_cm4.c    ****     LCD_CopyDisplayBuffer(imageBufferCache, CY_EINK_FRAME_SIZE);
  60              		.loc 1 23 0
  61 0020 41F2B061 		movw	r1, #5808
  62 0024 2046     		mov	r0, r4
  63 0026 FFF7FEFF 		bl	LCD_CopyDisplayBuffer
  64              	.LVL5:
  65 002a F8BD     		pop	{r3, r4, r5, r6, r7, pc}
  66              	.L4:
  67              		.align	2
  68              	.L3:
  69 002c 00000000 		.word	.LANCHOR0
  70 0030 B0160000 		.word	.LANCHOR1+1464
  71              		.cfi_endproc
  72              	.LFE549:
  73              		.size	UpdateDisplay, .-UpdateDisplay
  74              		.section	.text.ShowStartupScreen,"ax",%progbits
  75              		.align	2
  76              		.global	ShowStartupScreen
  77              		.thumb
  78              		.thumb_func
  79              		.type	ShowStartupScreen, %function
  80              	ShowStartupScreen:
  81              	.LFB550:
  24:main_cm4.c    ****     
  25:main_cm4.c    **** }
  26:main_cm4.c    **** 
  27:main_cm4.c    **** void ShowStartupScreen(void)
  28:main_cm4.c    **** {
  82              		.loc 1 28 0
  83              		.cfi_startproc
  84              		@ args = 0, pretend = 0, frame = 0
  85              		@ frame_needed = 0, uses_anonymous_args = 0
  86 0000 00B5     		push	{lr}
ARM GAS  C:\Users\PC\AppData\Local\Temp\cc7QDVdy.s 			page 3


  87              		.cfi_def_cfa_offset 4
  88              		.cfi_offset 14, -4
  89 0002 83B0     		sub	sp, sp, #12
  90              		.cfi_def_cfa_offset 16
  91              	.LVL6:
  29:main_cm4.c    ****     int i=0,j=0;
  30:main_cm4.c    ****     /* Set foreground and background color and font size */
  31:main_cm4.c    ****     GUI_SetFont(GUI_FONT_24B_1);
  92              		.loc 1 31 0
  93 0004 2848     		ldr	r0, .L7
  94 0006 FFF7FEFF 		bl	GUI_SetFont
  95              	.LVL7:
  32:main_cm4.c    ****     GUI_SetColor(GUI_BLACK);
  96              		.loc 1 32 0
  97 000a 0020     		movs	r0, #0
  98 000c FFF7FEFF 		bl	GUI_SetColor
  99              	.LVL8:
  33:main_cm4.c    ****     GUI_SetBkColor(GUI_WHITE);
 100              		.loc 1 33 0
 101 0010 6FF07F40 		mvn	r0, #-16777216
 102 0014 FFF7FEFF 		bl	GUI_SetBkColor
 103              	.LVL9:
  34:main_cm4.c    ****     GUI_Clear();
 104              		.loc 1 34 0
 105 0018 FFF7FEFF 		bl	GUI_Clear
 106              	.LVL10:
  35:main_cm4.c    **** 
  36:main_cm4.c    ****     GUI_DrawCircle(55, 55, 50);
 107              		.loc 1 36 0
 108 001c 3222     		movs	r2, #50
 109 001e 3721     		movs	r1, #55
 110 0020 0846     		mov	r0, r1
 111 0022 FFF7FEFF 		bl	GUI_DrawCircle
 112              	.LVL11:
  37:main_cm4.c    ****     GUI_SetPenSize(10);
 113              		.loc 1 37 0
 114 0026 0A20     		movs	r0, #10
 115 0028 FFF7FEFF 		bl	GUI_SetPenSize
 116              	.LVL12:
  38:main_cm4.c    ****     GUI_DrawCircle(35, 45, 10);
 117              		.loc 1 38 0
 118 002c 0A22     		movs	r2, #10
 119 002e 2D21     		movs	r1, #45
 120 0030 2320     		movs	r0, #35
 121 0032 FFF7FEFF 		bl	GUI_DrawCircle
 122              	.LVL13:
  39:main_cm4.c    ****     GUI_DrawCircle(75, 45, 10);
 123              		.loc 1 39 0
 124 0036 0A22     		movs	r2, #10
 125 0038 2D21     		movs	r1, #45
 126 003a 4B20     		movs	r0, #75
 127 003c FFF7FEFF 		bl	GUI_DrawCircle
 128              	.LVL14:
  40:main_cm4.c    ****     
  41:main_cm4.c    ****     GUI_FillRoundedRect(66, 66, 55, 55, 5);
 129              		.loc 1 41 0
 130 0040 0523     		movs	r3, #5
ARM GAS  C:\Users\PC\AppData\Local\Temp\cc7QDVdy.s 			page 4


 131 0042 0093     		str	r3, [sp]
 132 0044 3723     		movs	r3, #55
 133 0046 1A46     		mov	r2, r3
 134 0048 4221     		movs	r1, #66
 135 004a 0846     		mov	r0, r1
 136 004c FFF7FEFF 		bl	GUI_FillRoundedRect
 137              	.LVL15:
  42:main_cm4.c    ****     
  43:main_cm4.c    ****     GUI_SetTextAlign(GUI_TA_HCENTER);
 138              		.loc 1 43 0
 139 0050 0220     		movs	r0, #2
 140 0052 FFF7FEFF 		bl	GUI_SetTextAlign
 141              	.LVL16:
  44:main_cm4.c    ****     GUI_DispStringAt("Vasylkiv",190, 10);
 142              		.loc 1 44 0
 143 0056 0A22     		movs	r2, #10
 144 0058 BE21     		movs	r1, #190
 145 005a 1448     		ldr	r0, .L7+4
 146 005c FFF7FEFF 		bl	GUI_DispStringAt
 147              	.LVL17:
  45:main_cm4.c    ****     GUI_SetTextAlign(GUI_TA_HCENTER);
 148              		.loc 1 45 0
 149 0060 0220     		movs	r0, #2
 150 0062 FFF7FEFF 		bl	GUI_SetTextAlign
 151              	.LVL18:
  46:main_cm4.c    ****     GUI_DispStringAt("Maksym", 190, 30);
 152              		.loc 1 46 0
 153 0066 1E22     		movs	r2, #30
 154 0068 BE21     		movs	r1, #190
 155 006a 1148     		ldr	r0, .L7+8
 156 006c FFF7FEFF 		bl	GUI_DispStringAt
 157              	.LVL19:
  47:main_cm4.c    ****     GUI_SetTextAlign(GUI_TA_HCENTER);
 158              		.loc 1 47 0
 159 0070 0220     		movs	r0, #2
 160 0072 FFF7FEFF 		bl	GUI_SetTextAlign
 161              	.LVL20:
  48:main_cm4.c    ****     GUI_DispStringAt("FEI-33", 190, 50);
 162              		.loc 1 48 0
 163 0076 3222     		movs	r2, #50
 164 0078 BE21     		movs	r1, #190
 165 007a 0E48     		ldr	r0, .L7+12
 166 007c FFF7FEFF 		bl	GUI_DispStringAt
 167              	.LVL21:
  49:main_cm4.c    ****     GUI_SetTextAlign(GUI_TA_HCENTER);
 168              		.loc 1 49 0
 169 0080 0220     		movs	r0, #2
 170 0082 FFF7FEFF 		bl	GUI_SetTextAlign
 171              	.LVL22:
  50:main_cm4.c    ****     GUI_DispStringAt("12.04.2024", 190, 70);
 172              		.loc 1 50 0
 173 0086 4622     		movs	r2, #70
 174 0088 BE21     		movs	r1, #190
 175 008a 0B48     		ldr	r0, .L7+16
 176 008c FFF7FEFF 		bl	GUI_DispStringAt
 177              	.LVL23:
  51:main_cm4.c    ****     GUI_DispStringAt("Lab 10 FindMeAlert", 100, 90);
ARM GAS  C:\Users\PC\AppData\Local\Temp\cc7QDVdy.s 			page 5


 178              		.loc 1 51 0
 179 0090 5A22     		movs	r2, #90
 180 0092 6421     		movs	r1, #100
 181 0094 0948     		ldr	r0, .L7+20
 182 0096 FFF7FEFF 		bl	GUI_DispStringAt
 183              	.LVL24:
  52:main_cm4.c    ****     
  53:main_cm4.c    ****     UpdateDisplay(CY_EINK_FULL_4STAGE, true);
 184              		.loc 1 53 0
 185 009a 0121     		movs	r1, #1
 186 009c 0846     		mov	r0, r1
 187 009e FFF7FEFF 		bl	UpdateDisplay
 188              	.LVL25:
  54:main_cm4.c    **** }
 189              		.loc 1 54 0
 190 00a2 03B0     		add	sp, sp, #12
 191              		.cfi_def_cfa_offset 4
 192              		@ sp needed
 193 00a4 5DF804FB 		ldr	pc, [sp], #4
 194              	.L8:
 195              		.align	2
 196              	.L7:
 197 00a8 00000000 		.word	GUI_Font24B_1
 198 00ac 00000000 		.word	.LC0
 199 00b0 0C000000 		.word	.LC1
 200 00b4 14000000 		.word	.LC2
 201 00b8 1C000000 		.word	.LC3
 202 00bc 28000000 		.word	.LC4
 203              		.cfi_endproc
 204              	.LFE550:
 205              		.size	ShowStartupScreen, .-ShowStartupScreen
 206              		.section	.text.main,"ax",%progbits
 207              		.align	2
 208              		.global	main
 209              		.thumb
 210              		.thumb_func
 211              		.type	main, %function
 212              	main:
 213              	.LFB551:
  55:main_cm4.c    **** 
  56:main_cm4.c    **** int main(void)
  57:main_cm4.c    **** {
 214              		.loc 1 57 0
 215              		.cfi_startproc
 216              		@ Volatile: function does not return.
 217              		@ args = 0, pretend = 0, frame = 0
 218              		@ frame_needed = 0, uses_anonymous_args = 0
 219 0000 08B5     		push	{r3, lr}
 220              		.cfi_def_cfa_offset 8
 221              		.cfi_offset 3, -8
 222              		.cfi_offset 14, -4
  58:main_cm4.c    ****     //uint8 pageNumber = 0;
  59:main_cm4.c    ****     BleFindMe_Init();
 223              		.loc 1 59 0
 224 0002 FFF7FEFF 		bl	BleFindMe_Init
 225              	.LVL26:
 226              	.LBB4:
ARM GAS  C:\Users\PC\AppData\Local\Temp\cc7QDVdy.s 			page 6


 227              	.LBB5:
 228              		.file 2 "Generated_Source\\PSoC6\\pdl\\cmsis/include/cmsis_gcc.h"
   1:Generated_Source\PSoC6\pdl\cmsis/include/cmsis_gcc.h **** /**************************************************************************//**
   2:Generated_Source\PSoC6\pdl\cmsis/include/cmsis_gcc.h ****  * @file     cmsis_gcc.h
   3:Generated_Source\PSoC6\pdl\cmsis/include/cmsis_gcc.h ****  * @brief    CMSIS compiler GCC header file
   4:Generated_Source\PSoC6\pdl\cmsis/include/cmsis_gcc.h ****  * @version  V5.0.1
   5:Generated_Source\PSoC6\pdl\cmsis/include/cmsis_gcc.h ****  * @date     02. February 2017
   6:Generated_Source\PSoC6\pdl\cmsis/include/cmsis_gcc.h ****  ******************************************************************************/
   7:Generated_Source\PSoC6\pdl\cmsis/include/cmsis_gcc.h **** /*
   8:Generated_Source\PSoC6\pdl\cmsis/include/cmsis_gcc.h ****  * Copyright (c) 2009-2017 ARM Limited. All rights reserved.
   9:Generated_Source\PSoC6\pdl\cmsis/include/cmsis_gcc.h ****  *
  10:Generated_Source\PSoC6\pdl\cmsis/include/cmsis_gcc.h ****  * SPDX-License-Identifier: Apache-2.0
  11:Generated_Source\PSoC6\pdl\cmsis/include/cmsis_gcc.h ****  *
  12:Generated_Source\PSoC6\pdl\cmsis/include/cmsis_gcc.h ****  * Licensed under the Apache License, Version 2.0 (the License); you may
  13:Generated_Source\PSoC6\pdl\cmsis/include/cmsis_gcc.h ****  * not use this file except in compliance with the License.
  14:Generated_Source\PSoC6\pdl\cmsis/include/cmsis_gcc.h ****  * You may obtain a copy of the License at
  15:Generated_Source\PSoC6\pdl\cmsis/include/cmsis_gcc.h ****  *
  16:Generated_Source\PSoC6\pdl\cmsis/include/cmsis_gcc.h ****  * www.apache.org/licenses/LICENSE-2.0
  17:Generated_Source\PSoC6\pdl\cmsis/include/cmsis_gcc.h ****  *
  18:Generated_Source\PSoC6\pdl\cmsis/include/cmsis_gcc.h ****  * Unless required by applicable law or agreed to in writing, software
  19:Generated_Source\PSoC6\pdl\cmsis/include/cmsis_gcc.h ****  * distributed under the License is distributed on an AS IS BASIS, WITHOUT
  20:Generated_Source\PSoC6\pdl\cmsis/include/cmsis_gcc.h ****  * WARRANTIES OR CONDITIONS OF ANY KIND, either express or implied.
  21:Generated_Source\PSoC6\pdl\cmsis/include/cmsis_gcc.h ****  * See the License for the specific language governing permissions and
  22:Generated_Source\PSoC6\pdl\cmsis/include/cmsis_gcc.h ****  * limitations under the License.
  23:Generated_Source\PSoC6\pdl\cmsis/include/cmsis_gcc.h ****  */
  24:Generated_Source\PSoC6\pdl\cmsis/include/cmsis_gcc.h **** 
  25:Generated_Source\PSoC6\pdl\cmsis/include/cmsis_gcc.h **** #ifndef __CMSIS_GCC_H
  26:Generated_Source\PSoC6\pdl\cmsis/include/cmsis_gcc.h **** #define __CMSIS_GCC_H
  27:Generated_Source\PSoC6\pdl\cmsis/include/cmsis_gcc.h **** 
  28:Generated_Source\PSoC6\pdl\cmsis/include/cmsis_gcc.h **** /* ignore some GCC warnings */
  29:Generated_Source\PSoC6\pdl\cmsis/include/cmsis_gcc.h **** #pragma GCC diagnostic push
  30:Generated_Source\PSoC6\pdl\cmsis/include/cmsis_gcc.h **** #pragma GCC diagnostic ignored "-Wsign-conversion"
  31:Generated_Source\PSoC6\pdl\cmsis/include/cmsis_gcc.h **** #pragma GCC diagnostic ignored "-Wconversion"
  32:Generated_Source\PSoC6\pdl\cmsis/include/cmsis_gcc.h **** #pragma GCC diagnostic ignored "-Wunused-parameter"
  33:Generated_Source\PSoC6\pdl\cmsis/include/cmsis_gcc.h **** 
  34:Generated_Source\PSoC6\pdl\cmsis/include/cmsis_gcc.h **** /* CMSIS compiler specific defines */
  35:Generated_Source\PSoC6\pdl\cmsis/include/cmsis_gcc.h **** #ifndef   __ASM
  36:Generated_Source\PSoC6\pdl\cmsis/include/cmsis_gcc.h ****   #define __ASM                     __asm
  37:Generated_Source\PSoC6\pdl\cmsis/include/cmsis_gcc.h **** #endif
  38:Generated_Source\PSoC6\pdl\cmsis/include/cmsis_gcc.h **** #ifndef   __INLINE
  39:Generated_Source\PSoC6\pdl\cmsis/include/cmsis_gcc.h ****   #define __INLINE                  inline
  40:Generated_Source\PSoC6\pdl\cmsis/include/cmsis_gcc.h **** #endif
  41:Generated_Source\PSoC6\pdl\cmsis/include/cmsis_gcc.h **** #ifndef   __STATIC_INLINE
  42:Generated_Source\PSoC6\pdl\cmsis/include/cmsis_gcc.h ****   #define __STATIC_INLINE           static inline
  43:Generated_Source\PSoC6\pdl\cmsis/include/cmsis_gcc.h **** #endif
  44:Generated_Source\PSoC6\pdl\cmsis/include/cmsis_gcc.h **** #ifndef   __NO_RETURN
  45:Generated_Source\PSoC6\pdl\cmsis/include/cmsis_gcc.h ****   #define __NO_RETURN               __attribute__((noreturn))
  46:Generated_Source\PSoC6\pdl\cmsis/include/cmsis_gcc.h **** #endif
  47:Generated_Source\PSoC6\pdl\cmsis/include/cmsis_gcc.h **** #ifndef   __USED
  48:Generated_Source\PSoC6\pdl\cmsis/include/cmsis_gcc.h ****   #define __USED                    __attribute__((used))
  49:Generated_Source\PSoC6\pdl\cmsis/include/cmsis_gcc.h **** #endif
  50:Generated_Source\PSoC6\pdl\cmsis/include/cmsis_gcc.h **** #ifndef   __WEAK
  51:Generated_Source\PSoC6\pdl\cmsis/include/cmsis_gcc.h ****   #define __WEAK                    __attribute__((weak))
  52:Generated_Source\PSoC6\pdl\cmsis/include/cmsis_gcc.h **** #endif
  53:Generated_Source\PSoC6\pdl\cmsis/include/cmsis_gcc.h **** #ifndef   __UNALIGNED_UINT32
  54:Generated_Source\PSoC6\pdl\cmsis/include/cmsis_gcc.h **** #pragma GCC diagnostic push
  55:Generated_Source\PSoC6\pdl\cmsis/include/cmsis_gcc.h **** #pragma GCC diagnostic ignored "-Wpacked"
ARM GAS  C:\Users\PC\AppData\Local\Temp\cc7QDVdy.s 			page 7


  56:Generated_Source\PSoC6\pdl\cmsis/include/cmsis_gcc.h **** #pragma GCC diagnostic ignored "-Wattributes"
  57:Generated_Source\PSoC6\pdl\cmsis/include/cmsis_gcc.h ****   struct __attribute__((packed)) T_UINT32 { uint32_t v; };
  58:Generated_Source\PSoC6\pdl\cmsis/include/cmsis_gcc.h **** #pragma GCC diagnostic pop
  59:Generated_Source\PSoC6\pdl\cmsis/include/cmsis_gcc.h ****   #define __UNALIGNED_UINT32(x)     (((struct T_UINT32 *)(x))->v)
  60:Generated_Source\PSoC6\pdl\cmsis/include/cmsis_gcc.h **** #endif
  61:Generated_Source\PSoC6\pdl\cmsis/include/cmsis_gcc.h **** #ifndef   __ALIGNED
  62:Generated_Source\PSoC6\pdl\cmsis/include/cmsis_gcc.h ****   #define __ALIGNED(x)              __attribute__((aligned(x)))
  63:Generated_Source\PSoC6\pdl\cmsis/include/cmsis_gcc.h **** #endif
  64:Generated_Source\PSoC6\pdl\cmsis/include/cmsis_gcc.h **** #ifndef   __PACKED
  65:Generated_Source\PSoC6\pdl\cmsis/include/cmsis_gcc.h ****   #define __PACKED                  __attribute__((packed, aligned(1)))
  66:Generated_Source\PSoC6\pdl\cmsis/include/cmsis_gcc.h **** #endif
  67:Generated_Source\PSoC6\pdl\cmsis/include/cmsis_gcc.h **** #ifndef   __PACKED_STRUCT
  68:Generated_Source\PSoC6\pdl\cmsis/include/cmsis_gcc.h ****   #define __PACKED_STRUCT           struct __attribute__((packed, aligned(1)))
  69:Generated_Source\PSoC6\pdl\cmsis/include/cmsis_gcc.h **** #endif
  70:Generated_Source\PSoC6\pdl\cmsis/include/cmsis_gcc.h **** 
  71:Generated_Source\PSoC6\pdl\cmsis/include/cmsis_gcc.h **** 
  72:Generated_Source\PSoC6\pdl\cmsis/include/cmsis_gcc.h **** /* ###########################  Core Function Access  ########################### */
  73:Generated_Source\PSoC6\pdl\cmsis/include/cmsis_gcc.h **** /** \ingroup  CMSIS_Core_FunctionInterface
  74:Generated_Source\PSoC6\pdl\cmsis/include/cmsis_gcc.h ****     \defgroup CMSIS_Core_RegAccFunctions CMSIS Core Register Access Functions
  75:Generated_Source\PSoC6\pdl\cmsis/include/cmsis_gcc.h ****   @{
  76:Generated_Source\PSoC6\pdl\cmsis/include/cmsis_gcc.h ****  */
  77:Generated_Source\PSoC6\pdl\cmsis/include/cmsis_gcc.h **** 
  78:Generated_Source\PSoC6\pdl\cmsis/include/cmsis_gcc.h **** /**
  79:Generated_Source\PSoC6\pdl\cmsis/include/cmsis_gcc.h ****   \brief   Enable IRQ Interrupts
  80:Generated_Source\PSoC6\pdl\cmsis/include/cmsis_gcc.h ****   \details Enables IRQ interrupts by clearing the I-bit in the CPSR.
  81:Generated_Source\PSoC6\pdl\cmsis/include/cmsis_gcc.h ****            Can only be executed in Privileged modes.
  82:Generated_Source\PSoC6\pdl\cmsis/include/cmsis_gcc.h ****  */
  83:Generated_Source\PSoC6\pdl\cmsis/include/cmsis_gcc.h **** __attribute__((always_inline)) __STATIC_INLINE void __enable_irq(void)
  84:Generated_Source\PSoC6\pdl\cmsis/include/cmsis_gcc.h **** {
  85:Generated_Source\PSoC6\pdl\cmsis/include/cmsis_gcc.h ****   __ASM volatile ("cpsie i" : : : "memory");
 229              		.loc 2 85 0
 230              		.syntax unified
 231              	@ 85 "Generated_Source\PSoC6\pdl\cmsis/include/cmsis_gcc.h" 1
 232 0006 62B6     		cpsie i
 233              	@ 0 "" 2
 234              		.thumb
 235              		.syntax unified
 236              	.LBE5:
 237              	.LBE4:
  60:main_cm4.c    ****     __enable_irq(); /* Enable global interrupts. */
  61:main_cm4.c    **** 
  62:main_cm4.c    ****     /* Initialize emWin Graphics */
  63:main_cm4.c    ****     GUI_Init();
 238              		.loc 1 63 0
 239 0008 FFF7FEFF 		bl	GUI_Init
 240              	.LVL27:
  64:main_cm4.c    ****     
  65:main_cm4.c    ****     /* Start the eInk display interface and turn on the display power */
  66:main_cm4.c    ****     Cy_EINK_Start(20);
 241              		.loc 1 66 0
 242 000c 1420     		movs	r0, #20
 243 000e FFF7FEFF 		bl	Cy_EINK_Start
 244              	.LVL28:
  67:main_cm4.c    ****     Cy_EINK_Power(1);
 245              		.loc 1 67 0
 246 0012 0120     		movs	r0, #1
 247 0014 FFF7FEFF 		bl	Cy_EINK_Power
ARM GAS  C:\Users\PC\AppData\Local\Temp\cc7QDVdy.s 			page 8


 248              	.LVL29:
  68:main_cm4.c    ****     
  69:main_cm4.c    ****          /* Show the startup screen */
  70:main_cm4.c    ****     ShowStartupScreen();
 249              		.loc 1 70 0
 250 0018 FFF7FEFF 		bl	ShowStartupScreen
 251              	.LVL30:
 252              	.L10:
  71:main_cm4.c    ****     
  72:main_cm4.c    ****     
  73:main_cm4.c    ****     for(;;)
  74:main_cm4.c    ****     {
  75:main_cm4.c    ****        BleFindMe_Process();
 253              		.loc 1 75 0 discriminator 1
 254 001c FFF7FEFF 		bl	BleFindMe_Process
 255              	.LVL31:
 256 0020 FCE7     		b	.L10
 257              		.cfi_endproc
 258              	.LFE551:
 259              		.size	main, .-main
 260              		.global	imageBuffer
 261              		.global	imageBufferCache
 262 0022 00BF     		.section	.rodata.str1.4,"aMS",%progbits,1
 263              		.align	2
 264              	.LC0:
 265 0000 56617379 		.ascii	"Vasylkiv\000"
 265      6C6B6976 
 265      00
 266 0009 000000   		.space	3
 267              	.LC1:
 268 000c 4D616B73 		.ascii	"Maksym\000"
 268      796D00
 269 0013 00       		.space	1
 270              	.LC2:
 271 0014 4645492D 		.ascii	"FEI-33\000"
 271      333300
 272 001b 00       		.space	1
 273              	.LC3:
 274 001c 31322E30 		.ascii	"12.04.2024\000"
 274      342E3230 
 274      323400
 275 0027 00       		.space	1
 276              	.LC4:
 277 0028 4C616220 		.ascii	"Lab 10 FindMeAlert\000"
 277      31302046 
 277      696E644D 
 277      65416C65 
 277      727400
 278              		.bss
 279              		.align	2
 280              		.set	.LANCHOR0,. + 0
 281              		.set	.LANCHOR1,. + 4344
 282              		.type	imageBuffer, %object
 283              		.size	imageBuffer, 5808
 284              	imageBuffer:
 285 0000 00000000 		.space	5808
 285      00000000 
ARM GAS  C:\Users\PC\AppData\Local\Temp\cc7QDVdy.s 			page 9


 285      00000000 
 285      00000000 
 285      00000000 
 286              		.type	imageBufferCache, %object
 287              		.size	imageBufferCache, 5808
 288              	imageBufferCache:
 289 16b0 00000000 		.space	5808
 289      00000000 
 289      00000000 
 289      00000000 
 289      00000000 
 290              		.text
 291              	.Letext0:
 292              		.file 3 "c:\\program files (x86)\\cypress\\psoc creator\\4.4\\psoc creator\\import\\gnu\\arm\\5.4.
 293              		.file 4 "c:\\program files (x86)\\cypress\\psoc creator\\4.4\\psoc creator\\import\\gnu\\arm\\5.4.
 294              		.file 5 "Generated_Source\\PSoC6\\pdl\\drivers/peripheral/syslib/cy_syslib.h"
 295              		.file 6 "Generated_Source\\PSoC6\\pdl\\drivers/peripheral/tcpwm/cy_tcpwm_counter.h"
 296              		.file 7 "Generated_Source\\PSoC6\\pdl\\drivers/peripheral/scb/cy_scb_spi.h"
 297              		.file 8 "Generated_Source\\PSoC6\\pdl\\middleware/ble/cy_ble_stack_host_main.h"
 298              		.file 9 "Generated_Source\\PSoC6\\pdl\\middleware/ble/cy_ble_stack.h"
 299              		.file 10 "Generated_Source\\PSoC6\\pdl\\middleware/ble/cy_ble_gap.h"
 300              		.file 11 "Generated_Source\\PSoC6\\pdl\\middleware/emWin/code/include/GUI_Type.h"
 301              		.file 12 ".\\eInk Library/cy_eink_library.h"
 302              		.file 13 "Generated_Source\\PSoC6\\pdl\\cmsis/include/core_cm4.h"
 303              		.file 14 "Generated_Source\\PSoC6/CY_EINK_SPIM.h"
 304              		.file 15 "Generated_Source\\PSoC6/CY_EINK_Timer.h"
 305              		.file 16 "Generated_Source\\PSoC6\\pdl\\middleware/emWin/code/include/GUI.h"
 306              		.file 17 "LCDConf.h"
 307              		.file 18 "BLEFindMe.h"